
ctarget:     file format elf64-x86-64


Disassembly of section .init:

0000000000400c48 <_init>:
  400c48:	48 83 ec 08          	sub    $0x8,%rsp
  400c4c:	48 8b 05 a5 43 20 00 	mov    0x2043a5(%rip),%rax        # 604ff8 <__gmon_start__>
  400c53:	48 85 c0             	test   %rax,%rax
  400c56:	74 05                	je     400c5d <_init+0x15>
  400c58:	e8 43 02 00 00       	callq  400ea0 <__gmon_start__@plt>
  400c5d:	48 83 c4 08          	add    $0x8,%rsp
  400c61:	c3                   	retq   

Disassembly of section .plt:

0000000000400c70 <.plt>:
  400c70:	ff 35 92 43 20 00    	pushq  0x204392(%rip)        # 605008 <_GLOBAL_OFFSET_TABLE_+0x8>
  400c76:	ff 25 94 43 20 00    	jmpq   *0x204394(%rip)        # 605010 <_GLOBAL_OFFSET_TABLE_+0x10>
  400c7c:	0f 1f 40 00          	nopl   0x0(%rax)

0000000000400c80 <strcasecmp@plt>:
  400c80:	ff 25 92 43 20 00    	jmpq   *0x204392(%rip)        # 605018 <strcasecmp@GLIBC_2.2.5>
  400c86:	68 00 00 00 00       	pushq  $0x0
  400c8b:	e9 e0 ff ff ff       	jmpq   400c70 <.plt>

0000000000400c90 <__errno_location@plt>:
  400c90:	ff 25 8a 43 20 00    	jmpq   *0x20438a(%rip)        # 605020 <__errno_location@GLIBC_2.2.5>
  400c96:	68 01 00 00 00       	pushq  $0x1
  400c9b:	e9 d0 ff ff ff       	jmpq   400c70 <.plt>

0000000000400ca0 <srandom@plt>:
  400ca0:	ff 25 82 43 20 00    	jmpq   *0x204382(%rip)        # 605028 <srandom@GLIBC_2.2.5>
  400ca6:	68 02 00 00 00       	pushq  $0x2
  400cab:	e9 c0 ff ff ff       	jmpq   400c70 <.plt>

0000000000400cb0 <strncmp@plt>:
  400cb0:	ff 25 7a 43 20 00    	jmpq   *0x20437a(%rip)        # 605030 <strncmp@GLIBC_2.2.5>
  400cb6:	68 03 00 00 00       	pushq  $0x3
  400cbb:	e9 b0 ff ff ff       	jmpq   400c70 <.plt>

0000000000400cc0 <strcpy@plt>:
  400cc0:	ff 25 72 43 20 00    	jmpq   *0x204372(%rip)        # 605038 <strcpy@GLIBC_2.2.5>
  400cc6:	68 04 00 00 00       	pushq  $0x4
  400ccb:	e9 a0 ff ff ff       	jmpq   400c70 <.plt>

0000000000400cd0 <puts@plt>:
  400cd0:	ff 25 6a 43 20 00    	jmpq   *0x20436a(%rip)        # 605040 <puts@GLIBC_2.2.5>
  400cd6:	68 05 00 00 00       	pushq  $0x5
  400cdb:	e9 90 ff ff ff       	jmpq   400c70 <.plt>

0000000000400ce0 <write@plt>:
  400ce0:	ff 25 62 43 20 00    	jmpq   *0x204362(%rip)        # 605048 <write@GLIBC_2.2.5>
  400ce6:	68 06 00 00 00       	pushq  $0x6
  400ceb:	e9 80 ff ff ff       	jmpq   400c70 <.plt>

0000000000400cf0 <__stack_chk_fail@plt>:
  400cf0:	ff 25 5a 43 20 00    	jmpq   *0x20435a(%rip)        # 605050 <__stack_chk_fail@GLIBC_2.4>
  400cf6:	68 07 00 00 00       	pushq  $0x7
  400cfb:	e9 70 ff ff ff       	jmpq   400c70 <.plt>

0000000000400d00 <mmap@plt>:
  400d00:	ff 25 52 43 20 00    	jmpq   *0x204352(%rip)        # 605058 <mmap@GLIBC_2.2.5>
  400d06:	68 08 00 00 00       	pushq  $0x8
  400d0b:	e9 60 ff ff ff       	jmpq   400c70 <.plt>

0000000000400d10 <memset@plt>:
  400d10:	ff 25 4a 43 20 00    	jmpq   *0x20434a(%rip)        # 605060 <memset@GLIBC_2.2.5>
  400d16:	68 09 00 00 00       	pushq  $0x9
  400d1b:	e9 50 ff ff ff       	jmpq   400c70 <.plt>

0000000000400d20 <alarm@plt>:
  400d20:	ff 25 42 43 20 00    	jmpq   *0x204342(%rip)        # 605068 <alarm@GLIBC_2.2.5>
  400d26:	68 0a 00 00 00       	pushq  $0xa
  400d2b:	e9 40 ff ff ff       	jmpq   400c70 <.plt>

0000000000400d30 <close@plt>:
  400d30:	ff 25 3a 43 20 00    	jmpq   *0x20433a(%rip)        # 605070 <close@GLIBC_2.2.5>
  400d36:	68 0b 00 00 00       	pushq  $0xb
  400d3b:	e9 30 ff ff ff       	jmpq   400c70 <.plt>

0000000000400d40 <read@plt>:
  400d40:	ff 25 32 43 20 00    	jmpq   *0x204332(%rip)        # 605078 <read@GLIBC_2.2.5>
  400d46:	68 0c 00 00 00       	pushq  $0xc
  400d4b:	e9 20 ff ff ff       	jmpq   400c70 <.plt>

0000000000400d50 <__libc_start_main@plt>:
  400d50:	ff 25 2a 43 20 00    	jmpq   *0x20432a(%rip)        # 605080 <__libc_start_main@GLIBC_2.2.5>
  400d56:	68 0d 00 00 00       	pushq  $0xd
  400d5b:	e9 10 ff ff ff       	jmpq   400c70 <.plt>

0000000000400d60 <signal@plt>:
  400d60:	ff 25 22 43 20 00    	jmpq   *0x204322(%rip)        # 605088 <signal@GLIBC_2.2.5>
  400d66:	68 0e 00 00 00       	pushq  $0xe
  400d6b:	e9 00 ff ff ff       	jmpq   400c70 <.plt>

0000000000400d70 <gethostbyname@plt>:
  400d70:	ff 25 1a 43 20 00    	jmpq   *0x20431a(%rip)        # 605090 <gethostbyname@GLIBC_2.2.5>
  400d76:	68 0f 00 00 00       	pushq  $0xf
  400d7b:	e9 f0 fe ff ff       	jmpq   400c70 <.plt>

0000000000400d80 <__memmove_chk@plt>:
  400d80:	ff 25 12 43 20 00    	jmpq   *0x204312(%rip)        # 605098 <__memmove_chk@GLIBC_2.3.4>
  400d86:	68 10 00 00 00       	pushq  $0x10
  400d8b:	e9 e0 fe ff ff       	jmpq   400c70 <.plt>

0000000000400d90 <strtol@plt>:
  400d90:	ff 25 0a 43 20 00    	jmpq   *0x20430a(%rip)        # 6050a0 <strtol@GLIBC_2.2.5>
  400d96:	68 11 00 00 00       	pushq  $0x11
  400d9b:	e9 d0 fe ff ff       	jmpq   400c70 <.plt>

0000000000400da0 <memcpy@plt>:
  400da0:	ff 25 02 43 20 00    	jmpq   *0x204302(%rip)        # 6050a8 <memcpy@GLIBC_2.14>
  400da6:	68 12 00 00 00       	pushq  $0x12
  400dab:	e9 c0 fe ff ff       	jmpq   400c70 <.plt>

0000000000400db0 <time@plt>:
  400db0:	ff 25 fa 42 20 00    	jmpq   *0x2042fa(%rip)        # 6050b0 <time@GLIBC_2.2.5>
  400db6:	68 13 00 00 00       	pushq  $0x13
  400dbb:	e9 b0 fe ff ff       	jmpq   400c70 <.plt>

0000000000400dc0 <random@plt>:
  400dc0:	ff 25 f2 42 20 00    	jmpq   *0x2042f2(%rip)        # 6050b8 <random@GLIBC_2.2.5>
  400dc6:	68 14 00 00 00       	pushq  $0x14
  400dcb:	e9 a0 fe ff ff       	jmpq   400c70 <.plt>

0000000000400dd0 <_IO_getc@plt>:
  400dd0:	ff 25 ea 42 20 00    	jmpq   *0x2042ea(%rip)        # 6050c0 <_IO_getc@GLIBC_2.2.5>
  400dd6:	68 15 00 00 00       	pushq  $0x15
  400ddb:	e9 90 fe ff ff       	jmpq   400c70 <.plt>

0000000000400de0 <__isoc99_sscanf@plt>:
  400de0:	ff 25 e2 42 20 00    	jmpq   *0x2042e2(%rip)        # 6050c8 <__isoc99_sscanf@GLIBC_2.7>
  400de6:	68 16 00 00 00       	pushq  $0x16
  400deb:	e9 80 fe ff ff       	jmpq   400c70 <.plt>

0000000000400df0 <munmap@plt>:
  400df0:	ff 25 da 42 20 00    	jmpq   *0x2042da(%rip)        # 6050d0 <munmap@GLIBC_2.2.5>
  400df6:	68 17 00 00 00       	pushq  $0x17
  400dfb:	e9 70 fe ff ff       	jmpq   400c70 <.plt>

0000000000400e00 <__printf_chk@plt>:
  400e00:	ff 25 d2 42 20 00    	jmpq   *0x2042d2(%rip)        # 6050d8 <__printf_chk@GLIBC_2.3.4>
  400e06:	68 18 00 00 00       	pushq  $0x18
  400e0b:	e9 60 fe ff ff       	jmpq   400c70 <.plt>

0000000000400e10 <fopen@plt>:
  400e10:	ff 25 ca 42 20 00    	jmpq   *0x2042ca(%rip)        # 6050e0 <fopen@GLIBC_2.2.5>
  400e16:	68 19 00 00 00       	pushq  $0x19
  400e1b:	e9 50 fe ff ff       	jmpq   400c70 <.plt>

0000000000400e20 <getopt@plt>:
  400e20:	ff 25 c2 42 20 00    	jmpq   *0x2042c2(%rip)        # 6050e8 <getopt@GLIBC_2.2.5>
  400e26:	68 1a 00 00 00       	pushq  $0x1a
  400e2b:	e9 40 fe ff ff       	jmpq   400c70 <.plt>

0000000000400e30 <strtoul@plt>:
  400e30:	ff 25 ba 42 20 00    	jmpq   *0x2042ba(%rip)        # 6050f0 <strtoul@GLIBC_2.2.5>
  400e36:	68 1b 00 00 00       	pushq  $0x1b
  400e3b:	e9 30 fe ff ff       	jmpq   400c70 <.plt>

0000000000400e40 <gethostname@plt>:
  400e40:	ff 25 b2 42 20 00    	jmpq   *0x2042b2(%rip)        # 6050f8 <gethostname@GLIBC_2.2.5>
  400e46:	68 1c 00 00 00       	pushq  $0x1c
  400e4b:	e9 20 fe ff ff       	jmpq   400c70 <.plt>

0000000000400e50 <exit@plt>:
  400e50:	ff 25 aa 42 20 00    	jmpq   *0x2042aa(%rip)        # 605100 <exit@GLIBC_2.2.5>
  400e56:	68 1d 00 00 00       	pushq  $0x1d
  400e5b:	e9 10 fe ff ff       	jmpq   400c70 <.plt>

0000000000400e60 <connect@plt>:
  400e60:	ff 25 a2 42 20 00    	jmpq   *0x2042a2(%rip)        # 605108 <connect@GLIBC_2.2.5>
  400e66:	68 1e 00 00 00       	pushq  $0x1e
  400e6b:	e9 00 fe ff ff       	jmpq   400c70 <.plt>

0000000000400e70 <__fprintf_chk@plt>:
  400e70:	ff 25 9a 42 20 00    	jmpq   *0x20429a(%rip)        # 605110 <__fprintf_chk@GLIBC_2.3.4>
  400e76:	68 1f 00 00 00       	pushq  $0x1f
  400e7b:	e9 f0 fd ff ff       	jmpq   400c70 <.plt>

0000000000400e80 <__sprintf_chk@plt>:
  400e80:	ff 25 92 42 20 00    	jmpq   *0x204292(%rip)        # 605118 <__sprintf_chk@GLIBC_2.3.4>
  400e86:	68 20 00 00 00       	pushq  $0x20
  400e8b:	e9 e0 fd ff ff       	jmpq   400c70 <.plt>

0000000000400e90 <socket@plt>:
  400e90:	ff 25 8a 42 20 00    	jmpq   *0x20428a(%rip)        # 605120 <socket@GLIBC_2.2.5>
  400e96:	68 21 00 00 00       	pushq  $0x21
  400e9b:	e9 d0 fd ff ff       	jmpq   400c70 <.plt>

Disassembly of section .plt.got:

0000000000400ea0 <__gmon_start__@plt>:
  400ea0:	ff 25 52 41 20 00    	jmpq   *0x204152(%rip)        # 604ff8 <__gmon_start__>
  400ea6:	66 90                	xchg   %ax,%ax

Disassembly of section .text:

0000000000400eb0 <_start>:
  400eb0:	31 ed                	xor    %ebp,%ebp
  400eb2:	49 89 d1             	mov    %rdx,%r9
  400eb5:	5e                   	pop    %rsi
  400eb6:	48 89 e2             	mov    %rsp,%rdx
  400eb9:	48 83 e4 f0          	and    $0xfffffffffffffff0,%rsp
  400ebd:	50                   	push   %rax
  400ebe:	54                   	push   %rsp
  400ebf:	49 c7 c0 f0 2d 40 00 	mov    $0x402df0,%r8
  400ec6:	48 c7 c1 80 2d 40 00 	mov    $0x402d80,%rcx
  400ecd:	48 c7 c7 b5 11 40 00 	mov    $0x4011b5,%rdi
  400ed4:	e8 77 fe ff ff       	callq  400d50 <__libc_start_main@plt>
  400ed9:	f4                   	hlt    
  400eda:	66 0f 1f 44 00 00    	nopw   0x0(%rax,%rax,1)

0000000000400ee0 <deregister_tm_clones>:
  400ee0:	b8 b7 54 60 00       	mov    $0x6054b7,%eax
  400ee5:	55                   	push   %rbp
  400ee6:	48 2d b0 54 60 00    	sub    $0x6054b0,%rax
  400eec:	48 83 f8 0e          	cmp    $0xe,%rax
  400ef0:	48 89 e5             	mov    %rsp,%rbp
  400ef3:	76 1b                	jbe    400f10 <deregister_tm_clones+0x30>
  400ef5:	b8 00 00 00 00       	mov    $0x0,%eax
  400efa:	48 85 c0             	test   %rax,%rax
  400efd:	74 11                	je     400f10 <deregister_tm_clones+0x30>
  400eff:	5d                   	pop    %rbp
  400f00:	bf b0 54 60 00       	mov    $0x6054b0,%edi
  400f05:	ff e0                	jmpq   *%rax
  400f07:	66 0f 1f 84 00 00 00 	nopw   0x0(%rax,%rax,1)
  400f0e:	00 00 
  400f10:	5d                   	pop    %rbp
  400f11:	c3                   	retq   
  400f12:	0f 1f 40 00          	nopl   0x0(%rax)
  400f16:	66 2e 0f 1f 84 00 00 	nopw   %cs:0x0(%rax,%rax,1)
  400f1d:	00 00 00 

0000000000400f20 <register_tm_clones>:
  400f20:	be b0 54 60 00       	mov    $0x6054b0,%esi
  400f25:	55                   	push   %rbp
  400f26:	48 81 ee b0 54 60 00 	sub    $0x6054b0,%rsi
  400f2d:	48 c1 fe 03          	sar    $0x3,%rsi
  400f31:	48 89 e5             	mov    %rsp,%rbp
  400f34:	48 89 f0             	mov    %rsi,%rax
  400f37:	48 c1 e8 3f          	shr    $0x3f,%rax
  400f3b:	48 01 c6             	add    %rax,%rsi
  400f3e:	48 d1 fe             	sar    %rsi
  400f41:	74 15                	je     400f58 <register_tm_clones+0x38>
  400f43:	b8 00 00 00 00       	mov    $0x0,%eax
  400f48:	48 85 c0             	test   %rax,%rax
  400f4b:	74 0b                	je     400f58 <register_tm_clones+0x38>
  400f4d:	5d                   	pop    %rbp
  400f4e:	bf b0 54 60 00       	mov    $0x6054b0,%edi
  400f53:	ff e0                	jmpq   *%rax
  400f55:	0f 1f 00             	nopl   (%rax)
  400f58:	5d                   	pop    %rbp
  400f59:	c3                   	retq   
  400f5a:	66 0f 1f 44 00 00    	nopw   0x0(%rax,%rax,1)

0000000000400f60 <__do_global_dtors_aux>:
  400f60:	80 3d 81 45 20 00 00 	cmpb   $0x0,0x204581(%rip)        # 6054e8 <completed.7585>
  400f67:	75 11                	jne    400f7a <__do_global_dtors_aux+0x1a>
  400f69:	55                   	push   %rbp
  400f6a:	48 89 e5             	mov    %rsp,%rbp
  400f6d:	e8 6e ff ff ff       	callq  400ee0 <deregister_tm_clones>
  400f72:	5d                   	pop    %rbp
  400f73:	c6 05 6e 45 20 00 01 	movb   $0x1,0x20456e(%rip)        # 6054e8 <completed.7585>
  400f7a:	f3 c3                	repz retq 
  400f7c:	0f 1f 40 00          	nopl   0x0(%rax)

0000000000400f80 <frame_dummy>:
  400f80:	bf 20 4e 60 00       	mov    $0x604e20,%edi
  400f85:	48 83 3f 00          	cmpq   $0x0,(%rdi)
  400f89:	75 05                	jne    400f90 <frame_dummy+0x10>
  400f8b:	eb 93                	jmp    400f20 <register_tm_clones>
  400f8d:	0f 1f 00             	nopl   (%rax)
  400f90:	b8 00 00 00 00       	mov    $0x0,%eax
  400f95:	48 85 c0             	test   %rax,%rax
  400f98:	74 f1                	je     400f8b <frame_dummy+0xb>
  400f9a:	55                   	push   %rbp
  400f9b:	48 89 e5             	mov    %rsp,%rbp
  400f9e:	ff d0                	callq  *%rax
  400fa0:	5d                   	pop    %rbp
  400fa1:	e9 7a ff ff ff       	jmpq   400f20 <register_tm_clones>

0000000000400fa6 <usage>:
  400fa6:	48 83 ec 08          	sub    $0x8,%rsp
  400faa:	48 89 fa             	mov    %rdi,%rdx
  400fad:	83 3d 74 45 20 00 00 	cmpl   $0x0,0x204574(%rip)        # 605528 <is_checker>
  400fb4:	74 3e                	je     400ff4 <usage+0x4e>
  400fb6:	be 08 2e 40 00       	mov    $0x402e08,%esi
  400fbb:	bf 01 00 00 00       	mov    $0x1,%edi
  400fc0:	b8 00 00 00 00       	mov    $0x0,%eax
  400fc5:	e8 36 fe ff ff       	callq  400e00 <__printf_chk@plt>
  400fca:	bf 40 2e 40 00       	mov    $0x402e40,%edi
  400fcf:	e8 fc fc ff ff       	callq  400cd0 <puts@plt>
  400fd4:	bf b8 2f 40 00       	mov    $0x402fb8,%edi
  400fd9:	e8 f2 fc ff ff       	callq  400cd0 <puts@plt>
  400fde:	bf 68 2e 40 00       	mov    $0x402e68,%edi
  400fe3:	e8 e8 fc ff ff       	callq  400cd0 <puts@plt>
  400fe8:	bf d2 2f 40 00       	mov    $0x402fd2,%edi
  400fed:	e8 de fc ff ff       	callq  400cd0 <puts@plt>
  400ff2:	eb 32                	jmp    401026 <usage+0x80>
  400ff4:	be ee 2f 40 00       	mov    $0x402fee,%esi
  400ff9:	bf 01 00 00 00       	mov    $0x1,%edi
  400ffe:	b8 00 00 00 00       	mov    $0x0,%eax
  401003:	e8 f8 fd ff ff       	callq  400e00 <__printf_chk@plt>
  401008:	bf 90 2e 40 00       	mov    $0x402e90,%edi
  40100d:	e8 be fc ff ff       	callq  400cd0 <puts@plt>
  401012:	bf b8 2e 40 00       	mov    $0x402eb8,%edi
  401017:	e8 b4 fc ff ff       	callq  400cd0 <puts@plt>
  40101c:	bf 0c 30 40 00       	mov    $0x40300c,%edi
  401021:	e8 aa fc ff ff       	callq  400cd0 <puts@plt>
  401026:	bf 00 00 00 00       	mov    $0x0,%edi
  40102b:	e8 20 fe ff ff       	callq  400e50 <exit@plt>

0000000000401030 <initialize_target>:
  401030:	55                   	push   %rbp
  401031:	53                   	push   %rbx
  401032:	48 81 ec 18 21 00 00 	sub    $0x2118,%rsp
  401039:	89 f5                	mov    %esi,%ebp
  40103b:	64 48 8b 04 25 28 00 	mov    %fs:0x28,%rax
  401042:	00 00 
  401044:	48 89 84 24 08 21 00 	mov    %rax,0x2108(%rsp)
  40104b:	00 
  40104c:	31 c0                	xor    %eax,%eax
  40104e:	89 3d c4 44 20 00    	mov    %edi,0x2044c4(%rip)        # 605518 <check_level>
  401054:	8b 3d 0e 41 20 00    	mov    0x20410e(%rip),%edi        # 605168 <target_id>
  40105a:	e8 fa 1c 00 00       	callq  402d59 <gencookie>
  40105f:	89 05 bf 44 20 00    	mov    %eax,0x2044bf(%rip)        # 605524 <cookie>
  401065:	89 c7                	mov    %eax,%edi
  401067:	e8 ed 1c 00 00       	callq  402d59 <gencookie>
  40106c:	89 05 ae 44 20 00    	mov    %eax,0x2044ae(%rip)        # 605520 <authkey>
  401072:	8b 05 f0 40 20 00    	mov    0x2040f0(%rip),%eax        # 605168 <target_id>
  401078:	8d 78 01             	lea    0x1(%rax),%edi
  40107b:	e8 20 fc ff ff       	callq  400ca0 <srandom@plt>
  401080:	e8 3b fd ff ff       	callq  400dc0 <random@plt>
  401085:	89 c7                	mov    %eax,%edi
  401087:	e8 03 03 00 00       	callq  40138f <scramble>
  40108c:	89 c3                	mov    %eax,%ebx
  40108e:	85 ed                	test   %ebp,%ebp
  401090:	74 18                	je     4010aa <initialize_target+0x7a>
  401092:	bf 00 00 00 00       	mov    $0x0,%edi
  401097:	e8 14 fd ff ff       	callq  400db0 <time@plt>
  40109c:	89 c7                	mov    %eax,%edi
  40109e:	e8 fd fb ff ff       	callq  400ca0 <srandom@plt>
  4010a3:	e8 18 fd ff ff       	callq  400dc0 <random@plt>
  4010a8:	eb 05                	jmp    4010af <initialize_target+0x7f>
  4010aa:	b8 00 00 00 00       	mov    $0x0,%eax
  4010af:	01 c3                	add    %eax,%ebx
  4010b1:	0f b7 db             	movzwl %bx,%ebx
  4010b4:	8d 04 dd 00 01 00 00 	lea    0x100(,%rbx,8),%eax
  4010bb:	89 c0                	mov    %eax,%eax
  4010bd:	48 89 05 dc 43 20 00 	mov    %rax,0x2043dc(%rip)        # 6054a0 <buf_offset>
  4010c4:	c6 05 7d 50 20 00 63 	movb   $0x63,0x20507d(%rip)        # 606148 <target_prefix>
  4010cb:	83 3d d6 43 20 00 00 	cmpl   $0x0,0x2043d6(%rip)        # 6054a8 <notify>
  4010d2:	0f 84 bb 00 00 00    	je     401193 <initialize_target+0x163>
  4010d8:	83 3d 49 44 20 00 00 	cmpl   $0x0,0x204449(%rip)        # 605528 <is_checker>
  4010df:	0f 85 ae 00 00 00    	jne    401193 <initialize_target+0x163>
  4010e5:	be 00 01 00 00       	mov    $0x100,%esi
  4010ea:	48 89 e7             	mov    %rsp,%rdi
  4010ed:	e8 4e fd ff ff       	callq  400e40 <gethostname@plt>
  4010f2:	85 c0                	test   %eax,%eax
  4010f4:	74 25                	je     40111b <initialize_target+0xeb>
  4010f6:	bf e8 2e 40 00       	mov    $0x402ee8,%edi
  4010fb:	e8 d0 fb ff ff       	callq  400cd0 <puts@plt>
  401100:	bf 08 00 00 00       	mov    $0x8,%edi
  401105:	e8 46 fd ff ff       	callq  400e50 <exit@plt>
  40110a:	48 89 e6             	mov    %rsp,%rsi
  40110d:	e8 6e fb ff ff       	callq  400c80 <strcasecmp@plt>
  401112:	85 c0                	test   %eax,%eax
  401114:	74 21                	je     401137 <initialize_target+0x107>
  401116:	83 c3 01             	add    $0x1,%ebx
  401119:	eb 05                	jmp    401120 <initialize_target+0xf0>
  40111b:	bb 00 00 00 00       	mov    $0x0,%ebx
  401120:	48 63 c3             	movslq %ebx,%rax
  401123:	48 8b 3c c5 80 51 60 	mov    0x605180(,%rax,8),%rdi
  40112a:	00 
  40112b:	48 85 ff             	test   %rdi,%rdi
  40112e:	75 da                	jne    40110a <initialize_target+0xda>
  401130:	b8 00 00 00 00       	mov    $0x0,%eax
  401135:	eb 05                	jmp    40113c <initialize_target+0x10c>
  401137:	b8 01 00 00 00       	mov    $0x1,%eax
  40113c:	85 c0                	test   %eax,%eax
  40113e:	75 1c                	jne    40115c <initialize_target+0x12c>
  401140:	48 89 e2             	mov    %rsp,%rdx
  401143:	be 20 2f 40 00       	mov    $0x402f20,%esi
  401148:	bf 01 00 00 00       	mov    $0x1,%edi
  40114d:	e8 ae fc ff ff       	callq  400e00 <__printf_chk@plt>
  401152:	bf 08 00 00 00       	mov    $0x8,%edi
  401157:	e8 f4 fc ff ff       	callq  400e50 <exit@plt>
  40115c:	48 8d bc 24 00 01 00 	lea    0x100(%rsp),%rdi
  401163:	00 
  401164:	e8 5a 19 00 00       	callq  402ac3 <init_driver>
  401169:	85 c0                	test   %eax,%eax
  40116b:	79 26                	jns    401193 <initialize_target+0x163>
  40116d:	48 8d 94 24 00 01 00 	lea    0x100(%rsp),%rdx
  401174:	00 
  401175:	be 60 2f 40 00       	mov    $0x402f60,%esi
  40117a:	bf 01 00 00 00       	mov    $0x1,%edi
  40117f:	b8 00 00 00 00       	mov    $0x0,%eax
  401184:	e8 77 fc ff ff       	callq  400e00 <__printf_chk@plt>
  401189:	bf 08 00 00 00       	mov    $0x8,%edi
  40118e:	e8 bd fc ff ff       	callq  400e50 <exit@plt>
  401193:	48 8b 84 24 08 21 00 	mov    0x2108(%rsp),%rax
  40119a:	00 
  40119b:	64 48 33 04 25 28 00 	xor    %fs:0x28,%rax
  4011a2:	00 00 
  4011a4:	74 05                	je     4011ab <initialize_target+0x17b>
  4011a6:	e8 45 fb ff ff       	callq  400cf0 <__stack_chk_fail@plt>
  4011ab:	48 81 c4 18 21 00 00 	add    $0x2118,%rsp
  4011b2:	5b                   	pop    %rbx
  4011b3:	5d                   	pop    %rbp
  4011b4:	c3                   	retq   

00000000004011b5 <main>:
  4011b5:	41 56                	push   %r14
  4011b7:	41 55                	push   %r13
  4011b9:	41 54                	push   %r12
  4011bb:	55                   	push   %rbp
  4011bc:	53                   	push   %rbx
  4011bd:	41 89 fc             	mov    %edi,%r12d
  4011c0:	48 89 f3             	mov    %rsi,%rbx
  4011c3:	be fe 1d 40 00       	mov    $0x401dfe,%esi
  4011c8:	bf 0b 00 00 00       	mov    $0xb,%edi
  4011cd:	e8 8e fb ff ff       	callq  400d60 <signal@plt>
  4011d2:	be b0 1d 40 00       	mov    $0x401db0,%esi
  4011d7:	bf 07 00 00 00       	mov    $0x7,%edi
  4011dc:	e8 7f fb ff ff       	callq  400d60 <signal@plt>
  4011e1:	be 4c 1e 40 00       	mov    $0x401e4c,%esi
  4011e6:	bf 04 00 00 00       	mov    $0x4,%edi
  4011eb:	e8 70 fb ff ff       	callq  400d60 <signal@plt>
  4011f0:	83 3d 31 43 20 00 00 	cmpl   $0x0,0x204331(%rip)        # 605528 <is_checker>
  4011f7:	74 20                	je     401219 <main+0x64>
  4011f9:	be 9a 1e 40 00       	mov    $0x401e9a,%esi
  4011fe:	bf 0e 00 00 00       	mov    $0xe,%edi
  401203:	e8 58 fb ff ff       	callq  400d60 <signal@plt>
  401208:	bf 05 00 00 00       	mov    $0x5,%edi
  40120d:	e8 0e fb ff ff       	callq  400d20 <alarm@plt>
  401212:	bd 2a 30 40 00       	mov    $0x40302a,%ebp
  401217:	eb 05                	jmp    40121e <main+0x69>
  401219:	bd 25 30 40 00       	mov    $0x403025,%ebp
  40121e:	48 8b 05 9b 42 20 00 	mov    0x20429b(%rip),%rax        # 6054c0 <stdin@@GLIBC_2.2.5>
  401225:	48 89 05 e4 42 20 00 	mov    %rax,0x2042e4(%rip)        # 605510 <infile>
  40122c:	41 bd 00 00 00 00    	mov    $0x0,%r13d
  401232:	41 be 00 00 00 00    	mov    $0x0,%r14d
  401238:	e9 c6 00 00 00       	jmpq   401303 <main+0x14e>
  40123d:	83 e8 61             	sub    $0x61,%eax
  401240:	3c 10                	cmp    $0x10,%al
  401242:	0f 87 9c 00 00 00    	ja     4012e4 <main+0x12f>
  401248:	0f b6 c0             	movzbl %al,%eax
  40124b:	ff 24 c5 70 30 40 00 	jmpq   *0x403070(,%rax,8)
  401252:	48 8b 3b             	mov    (%rbx),%rdi
  401255:	e8 4c fd ff ff       	callq  400fa6 <usage>
  40125a:	be 25 32 40 00       	mov    $0x403225,%esi
  40125f:	48 8b 3d 62 42 20 00 	mov    0x204262(%rip),%rdi        # 6054c8 <optarg@@GLIBC_2.2.5>
  401266:	e8 a5 fb ff ff       	callq  400e10 <fopen@plt>
  40126b:	48 89 05 9e 42 20 00 	mov    %rax,0x20429e(%rip)        # 605510 <infile>
  401272:	48 85 c0             	test   %rax,%rax
  401275:	0f 85 88 00 00 00    	jne    401303 <main+0x14e>
  40127b:	48 8b 0d 46 42 20 00 	mov    0x204246(%rip),%rcx        # 6054c8 <optarg@@GLIBC_2.2.5>
  401282:	ba 32 30 40 00       	mov    $0x403032,%edx
  401287:	be 01 00 00 00       	mov    $0x1,%esi
  40128c:	48 8b 3d 4d 42 20 00 	mov    0x20424d(%rip),%rdi        # 6054e0 <stderr@@GLIBC_2.2.5>
  401293:	e8 d8 fb ff ff       	callq  400e70 <__fprintf_chk@plt>
  401298:	b8 01 00 00 00       	mov    $0x1,%eax
  40129d:	e9 e4 00 00 00       	jmpq   401386 <main+0x1d1>
  4012a2:	ba 10 00 00 00       	mov    $0x10,%edx
  4012a7:	be 00 00 00 00       	mov    $0x0,%esi
  4012ac:	48 8b 3d 15 42 20 00 	mov    0x204215(%rip),%rdi        # 6054c8 <optarg@@GLIBC_2.2.5>
  4012b3:	e8 78 fb ff ff       	callq  400e30 <strtoul@plt>
  4012b8:	41 89 c6             	mov    %eax,%r14d
  4012bb:	eb 46                	jmp    401303 <main+0x14e>
  4012bd:	ba 0a 00 00 00       	mov    $0xa,%edx
  4012c2:	be 00 00 00 00       	mov    $0x0,%esi
  4012c7:	48 8b 3d fa 41 20 00 	mov    0x2041fa(%rip),%rdi        # 6054c8 <optarg@@GLIBC_2.2.5>
  4012ce:	e8 bd fa ff ff       	callq  400d90 <strtol@plt>
  4012d3:	41 89 c5             	mov    %eax,%r13d
  4012d6:	eb 2b                	jmp    401303 <main+0x14e>
  4012d8:	c7 05 c6 41 20 00 00 	movl   $0x0,0x2041c6(%rip)        # 6054a8 <notify>
  4012df:	00 00 00 
  4012e2:	eb 1f                	jmp    401303 <main+0x14e>
  4012e4:	0f be d2             	movsbl %dl,%edx
  4012e7:	be 4f 30 40 00       	mov    $0x40304f,%esi
  4012ec:	bf 01 00 00 00       	mov    $0x1,%edi
  4012f1:	b8 00 00 00 00       	mov    $0x0,%eax
  4012f6:	e8 05 fb ff ff       	callq  400e00 <__printf_chk@plt>
  4012fb:	48 8b 3b             	mov    (%rbx),%rdi
  4012fe:	e8 a3 fc ff ff       	callq  400fa6 <usage>
  401303:	48 89 ea             	mov    %rbp,%rdx
  401306:	48 89 de             	mov    %rbx,%rsi
  401309:	44 89 e7             	mov    %r12d,%edi
  40130c:	e8 0f fb ff ff       	callq  400e20 <getopt@plt>
  401311:	89 c2                	mov    %eax,%edx
  401313:	3c ff                	cmp    $0xff,%al
  401315:	0f 85 22 ff ff ff    	jne    40123d <main+0x88>
  40131b:	be 00 00 00 00       	mov    $0x0,%esi
  401320:	44 89 ef             	mov    %r13d,%edi
  401323:	e8 08 fd ff ff       	callq  401030 <initialize_target>
  401328:	83 3d f9 41 20 00 00 	cmpl   $0x0,0x2041f9(%rip)        # 605528 <is_checker>
  40132f:	74 2a                	je     40135b <main+0x1a6>
  401331:	44 3b 35 e8 41 20 00 	cmp    0x2041e8(%rip),%r14d        # 605520 <authkey>
  401338:	74 21                	je     40135b <main+0x1a6>
  40133a:	44 89 f2             	mov    %r14d,%edx
  40133d:	be 88 2f 40 00       	mov    $0x402f88,%esi
  401342:	bf 01 00 00 00       	mov    $0x1,%edi
  401347:	b8 00 00 00 00       	mov    $0x0,%eax
  40134c:	e8 af fa ff ff       	callq  400e00 <__printf_chk@plt>
  401351:	b8 00 00 00 00       	mov    $0x0,%eax
  401356:	e8 d7 06 00 00       	callq  401a32 <check_fail>
  40135b:	8b 15 c3 41 20 00    	mov    0x2041c3(%rip),%edx        # 605524 <cookie>
  401361:	be 62 30 40 00       	mov    $0x403062,%esi
  401366:	bf 01 00 00 00       	mov    $0x1,%edi
  40136b:	b8 00 00 00 00       	mov    $0x0,%eax
  401370:	e8 8b fa ff ff       	callq  400e00 <__printf_chk@plt>
  401375:	48 8b 3d 24 41 20 00 	mov    0x204124(%rip),%rdi        # 6054a0 <buf_offset>
  40137c:	e8 19 0c 00 00       	callq  401f9a <stable_launch>
  401381:	b8 00 00 00 00       	mov    $0x0,%eax
  401386:	5b                   	pop    %rbx
  401387:	5d                   	pop    %rbp
  401388:	41 5c                	pop    %r12
  40138a:	41 5d                	pop    %r13
  40138c:	41 5e                	pop    %r14
  40138e:	c3                   	retq   

000000000040138f <scramble>:
  40138f:	48 83 ec 38          	sub    $0x38,%rsp
  401393:	64 48 8b 04 25 28 00 	mov    %fs:0x28,%rax
  40139a:	00 00 
  40139c:	48 89 44 24 28       	mov    %rax,0x28(%rsp)
  4013a1:	31 c0                	xor    %eax,%eax
  4013a3:	eb 10                	jmp    4013b5 <scramble+0x26>
  4013a5:	69 d0 6b 7d 00 00    	imul   $0x7d6b,%eax,%edx
  4013ab:	01 fa                	add    %edi,%edx
  4013ad:	89 c1                	mov    %eax,%ecx
  4013af:	89 14 8c             	mov    %edx,(%rsp,%rcx,4)
  4013b2:	83 c0 01             	add    $0x1,%eax
  4013b5:	83 f8 09             	cmp    $0x9,%eax
  4013b8:	76 eb                	jbe    4013a5 <scramble+0x16>
  4013ba:	8b 44 24 1c          	mov    0x1c(%rsp),%eax
  4013be:	69 c0 0d ef 00 00    	imul   $0xef0d,%eax,%eax
  4013c4:	89 44 24 1c          	mov    %eax,0x1c(%rsp)
  4013c8:	8b 44 24 04          	mov    0x4(%rsp),%eax
  4013cc:	69 c0 71 75 00 00    	imul   $0x7571,%eax,%eax
  4013d2:	89 44 24 04          	mov    %eax,0x4(%rsp)
  4013d6:	8b 44 24 0c          	mov    0xc(%rsp),%eax
  4013da:	69 c0 bf 82 00 00    	imul   $0x82bf,%eax,%eax
  4013e0:	89 44 24 0c          	mov    %eax,0xc(%rsp)
  4013e4:	8b 44 24 10          	mov    0x10(%rsp),%eax
  4013e8:	69 c0 1f 72 00 00    	imul   $0x721f,%eax,%eax
  4013ee:	89 44 24 10          	mov    %eax,0x10(%rsp)
  4013f2:	8b 44 24 18          	mov    0x18(%rsp),%eax
  4013f6:	69 c0 5a d9 00 00    	imul   $0xd95a,%eax,%eax
  4013fc:	89 44 24 18          	mov    %eax,0x18(%rsp)
  401400:	8b 44 24 24          	mov    0x24(%rsp),%eax
  401404:	69 c0 38 0c 00 00    	imul   $0xc38,%eax,%eax
  40140a:	89 44 24 24          	mov    %eax,0x24(%rsp)
  40140e:	8b 44 24 20          	mov    0x20(%rsp),%eax
  401412:	69 c0 bf f0 00 00    	imul   $0xf0bf,%eax,%eax
  401418:	89 44 24 20          	mov    %eax,0x20(%rsp)
  40141c:	8b 44 24 1c          	mov    0x1c(%rsp),%eax
  401420:	69 c0 1c d9 00 00    	imul   $0xd91c,%eax,%eax
  401426:	89 44 24 1c          	mov    %eax,0x1c(%rsp)
  40142a:	8b 44 24 1c          	mov    0x1c(%rsp),%eax
  40142e:	69 c0 f0 b4 00 00    	imul   $0xb4f0,%eax,%eax
  401434:	89 44 24 1c          	mov    %eax,0x1c(%rsp)
  401438:	8b 44 24 10          	mov    0x10(%rsp),%eax
  40143c:	69 c0 5d 11 00 00    	imul   $0x115d,%eax,%eax
  401442:	89 44 24 10          	mov    %eax,0x10(%rsp)
  401446:	8b 04 24             	mov    (%rsp),%eax
  401449:	69 c0 b4 07 00 00    	imul   $0x7b4,%eax,%eax
  40144f:	89 04 24             	mov    %eax,(%rsp)
  401452:	8b 44 24 20          	mov    0x20(%rsp),%eax
  401456:	69 c0 02 3c 00 00    	imul   $0x3c02,%eax,%eax
  40145c:	89 44 24 20          	mov    %eax,0x20(%rsp)
  401460:	8b 44 24 20          	mov    0x20(%rsp),%eax
  401464:	69 c0 80 a9 00 00    	imul   $0xa980,%eax,%eax
  40146a:	89 44 24 20          	mov    %eax,0x20(%rsp)
  40146e:	8b 44 24 18          	mov    0x18(%rsp),%eax
  401472:	69 c0 4e 6b 00 00    	imul   $0x6b4e,%eax,%eax
  401478:	89 44 24 18          	mov    %eax,0x18(%rsp)
  40147c:	8b 44 24 04          	mov    0x4(%rsp),%eax
  401480:	69 c0 d5 b4 00 00    	imul   $0xb4d5,%eax,%eax
  401486:	89 44 24 04          	mov    %eax,0x4(%rsp)
  40148a:	8b 44 24 1c          	mov    0x1c(%rsp),%eax
  40148e:	69 c0 d5 66 00 00    	imul   $0x66d5,%eax,%eax
  401494:	89 44 24 1c          	mov    %eax,0x1c(%rsp)
  401498:	8b 44 24 20          	mov    0x20(%rsp),%eax
  40149c:	69 c0 64 7b 00 00    	imul   $0x7b64,%eax,%eax
  4014a2:	89 44 24 20          	mov    %eax,0x20(%rsp)
  4014a6:	8b 44 24 20          	mov    0x20(%rsp),%eax
  4014aa:	69 c0 f6 36 00 00    	imul   $0x36f6,%eax,%eax
  4014b0:	89 44 24 20          	mov    %eax,0x20(%rsp)
  4014b4:	8b 04 24             	mov    (%rsp),%eax
  4014b7:	69 c0 eb 99 00 00    	imul   $0x99eb,%eax,%eax
  4014bd:	89 04 24             	mov    %eax,(%rsp)
  4014c0:	8b 44 24 14          	mov    0x14(%rsp),%eax
  4014c4:	69 c0 78 e9 00 00    	imul   $0xe978,%eax,%eax
  4014ca:	89 44 24 14          	mov    %eax,0x14(%rsp)
  4014ce:	8b 04 24             	mov    (%rsp),%eax
  4014d1:	69 c0 e6 7c 00 00    	imul   $0x7ce6,%eax,%eax
  4014d7:	89 04 24             	mov    %eax,(%rsp)
  4014da:	8b 44 24 10          	mov    0x10(%rsp),%eax
  4014de:	69 c0 ae 04 00 00    	imul   $0x4ae,%eax,%eax
  4014e4:	89 44 24 10          	mov    %eax,0x10(%rsp)
  4014e8:	8b 44 24 20          	mov    0x20(%rsp),%eax
  4014ec:	69 c0 ff ee 00 00    	imul   $0xeeff,%eax,%eax
  4014f2:	89 44 24 20          	mov    %eax,0x20(%rsp)
  4014f6:	8b 44 24 24          	mov    0x24(%rsp),%eax
  4014fa:	69 c0 47 ca 00 00    	imul   $0xca47,%eax,%eax
  401500:	89 44 24 24          	mov    %eax,0x24(%rsp)
  401504:	8b 44 24 20          	mov    0x20(%rsp),%eax
  401508:	69 c0 50 48 00 00    	imul   $0x4850,%eax,%eax
  40150e:	89 44 24 20          	mov    %eax,0x20(%rsp)
  401512:	8b 44 24 10          	mov    0x10(%rsp),%eax
  401516:	69 c0 9e db 00 00    	imul   $0xdb9e,%eax,%eax
  40151c:	89 44 24 10          	mov    %eax,0x10(%rsp)
  401520:	8b 04 24             	mov    (%rsp),%eax
  401523:	69 c0 27 b0 00 00    	imul   $0xb027,%eax,%eax
  401529:	89 04 24             	mov    %eax,(%rsp)
  40152c:	8b 44 24 1c          	mov    0x1c(%rsp),%eax
  401530:	69 c0 26 40 00 00    	imul   $0x4026,%eax,%eax
  401536:	89 44 24 1c          	mov    %eax,0x1c(%rsp)
  40153a:	8b 44 24 04          	mov    0x4(%rsp),%eax
  40153e:	69 c0 d9 ff 00 00    	imul   $0xffd9,%eax,%eax
  401544:	89 44 24 04          	mov    %eax,0x4(%rsp)
  401548:	8b 44 24 20          	mov    0x20(%rsp),%eax
  40154c:	69 c0 11 43 00 00    	imul   $0x4311,%eax,%eax
  401552:	89 44 24 20          	mov    %eax,0x20(%rsp)
  401556:	8b 44 24 08          	mov    0x8(%rsp),%eax
  40155a:	69 c0 52 bc 00 00    	imul   $0xbc52,%eax,%eax
  401560:	89 44 24 08          	mov    %eax,0x8(%rsp)
  401564:	8b 04 24             	mov    (%rsp),%eax
  401567:	69 c0 91 58 00 00    	imul   $0x5891,%eax,%eax
  40156d:	89 04 24             	mov    %eax,(%rsp)
  401570:	8b 44 24 18          	mov    0x18(%rsp),%eax
  401574:	69 c0 2c 86 00 00    	imul   $0x862c,%eax,%eax
  40157a:	89 44 24 18          	mov    %eax,0x18(%rsp)
  40157e:	8b 44 24 0c          	mov    0xc(%rsp),%eax
  401582:	69 c0 da 35 00 00    	imul   $0x35da,%eax,%eax
  401588:	89 44 24 0c          	mov    %eax,0xc(%rsp)
  40158c:	8b 44 24 14          	mov    0x14(%rsp),%eax
  401590:	69 c0 9e 38 00 00    	imul   $0x389e,%eax,%eax
  401596:	89 44 24 14          	mov    %eax,0x14(%rsp)
  40159a:	8b 44 24 10          	mov    0x10(%rsp),%eax
  40159e:	69 c0 5c 93 00 00    	imul   $0x935c,%eax,%eax
  4015a4:	89 44 24 10          	mov    %eax,0x10(%rsp)
  4015a8:	8b 44 24 1c          	mov    0x1c(%rsp),%eax
  4015ac:	69 c0 03 15 00 00    	imul   $0x1503,%eax,%eax
  4015b2:	89 44 24 1c          	mov    %eax,0x1c(%rsp)
  4015b6:	8b 44 24 20          	mov    0x20(%rsp),%eax
  4015ba:	69 c0 2a 23 00 00    	imul   $0x232a,%eax,%eax
  4015c0:	89 44 24 20          	mov    %eax,0x20(%rsp)
  4015c4:	8b 44 24 04          	mov    0x4(%rsp),%eax
  4015c8:	69 c0 d5 75 00 00    	imul   $0x75d5,%eax,%eax
  4015ce:	89 44 24 04          	mov    %eax,0x4(%rsp)
  4015d2:	8b 44 24 0c          	mov    0xc(%rsp),%eax
  4015d6:	69 c0 f2 a7 00 00    	imul   $0xa7f2,%eax,%eax
  4015dc:	89 44 24 0c          	mov    %eax,0xc(%rsp)
  4015e0:	8b 44 24 08          	mov    0x8(%rsp),%eax
  4015e4:	69 c0 16 c9 00 00    	imul   $0xc916,%eax,%eax
  4015ea:	89 44 24 08          	mov    %eax,0x8(%rsp)
  4015ee:	8b 44 24 0c          	mov    0xc(%rsp),%eax
  4015f2:	69 c0 29 0e 00 00    	imul   $0xe29,%eax,%eax
  4015f8:	89 44 24 0c          	mov    %eax,0xc(%rsp)
  4015fc:	8b 44 24 10          	mov    0x10(%rsp),%eax
  401600:	69 c0 30 9b 00 00    	imul   $0x9b30,%eax,%eax
  401606:	89 44 24 10          	mov    %eax,0x10(%rsp)
  40160a:	8b 44 24 0c          	mov    0xc(%rsp),%eax
  40160e:	69 c0 e4 d2 00 00    	imul   $0xd2e4,%eax,%eax
  401614:	89 44 24 0c          	mov    %eax,0xc(%rsp)
  401618:	8b 44 24 1c          	mov    0x1c(%rsp),%eax
  40161c:	69 c0 c5 f9 00 00    	imul   $0xf9c5,%eax,%eax
  401622:	89 44 24 1c          	mov    %eax,0x1c(%rsp)
  401626:	8b 44 24 24          	mov    0x24(%rsp),%eax
  40162a:	69 c0 b8 4f 00 00    	imul   $0x4fb8,%eax,%eax
  401630:	89 44 24 24          	mov    %eax,0x24(%rsp)
  401634:	8b 44 24 24          	mov    0x24(%rsp),%eax
  401638:	69 c0 db bf 00 00    	imul   $0xbfdb,%eax,%eax
  40163e:	89 44 24 24          	mov    %eax,0x24(%rsp)
  401642:	8b 44 24 04          	mov    0x4(%rsp),%eax
  401646:	69 c0 cd ed 00 00    	imul   $0xedcd,%eax,%eax
  40164c:	89 44 24 04          	mov    %eax,0x4(%rsp)
  401650:	8b 44 24 08          	mov    0x8(%rsp),%eax
  401654:	69 c0 d1 37 00 00    	imul   $0x37d1,%eax,%eax
  40165a:	89 44 24 08          	mov    %eax,0x8(%rsp)
  40165e:	8b 44 24 0c          	mov    0xc(%rsp),%eax
  401662:	69 c0 1e 66 00 00    	imul   $0x661e,%eax,%eax
  401668:	89 44 24 0c          	mov    %eax,0xc(%rsp)
  40166c:	8b 44 24 18          	mov    0x18(%rsp),%eax
  401670:	69 c0 fb 42 00 00    	imul   $0x42fb,%eax,%eax
  401676:	89 44 24 18          	mov    %eax,0x18(%rsp)
  40167a:	8b 44 24 18          	mov    0x18(%rsp),%eax
  40167e:	69 c0 f4 25 00 00    	imul   $0x25f4,%eax,%eax
  401684:	89 44 24 18          	mov    %eax,0x18(%rsp)
  401688:	8b 44 24 18          	mov    0x18(%rsp),%eax
  40168c:	69 c0 85 91 00 00    	imul   $0x9185,%eax,%eax
  401692:	89 44 24 18          	mov    %eax,0x18(%rsp)
  401696:	8b 44 24 0c          	mov    0xc(%rsp),%eax
  40169a:	69 c0 01 5c 00 00    	imul   $0x5c01,%eax,%eax
  4016a0:	89 44 24 0c          	mov    %eax,0xc(%rsp)
  4016a4:	8b 44 24 0c          	mov    0xc(%rsp),%eax
  4016a8:	69 c0 90 36 00 00    	imul   $0x3690,%eax,%eax
  4016ae:	89 44 24 0c          	mov    %eax,0xc(%rsp)
  4016b2:	8b 44 24 10          	mov    0x10(%rsp),%eax
  4016b6:	69 c0 80 c5 00 00    	imul   $0xc580,%eax,%eax
  4016bc:	89 44 24 10          	mov    %eax,0x10(%rsp)
  4016c0:	8b 44 24 20          	mov    0x20(%rsp),%eax
  4016c4:	69 c0 83 87 00 00    	imul   $0x8783,%eax,%eax
  4016ca:	89 44 24 20          	mov    %eax,0x20(%rsp)
  4016ce:	8b 44 24 04          	mov    0x4(%rsp),%eax
  4016d2:	69 c0 e3 78 00 00    	imul   $0x78e3,%eax,%eax
  4016d8:	89 44 24 04          	mov    %eax,0x4(%rsp)
  4016dc:	8b 44 24 24          	mov    0x24(%rsp),%eax
  4016e0:	69 c0 fa 21 00 00    	imul   $0x21fa,%eax,%eax
  4016e6:	89 44 24 24          	mov    %eax,0x24(%rsp)
  4016ea:	8b 44 24 04          	mov    0x4(%rsp),%eax
  4016ee:	69 c0 bd bd 00 00    	imul   $0xbdbd,%eax,%eax
  4016f4:	89 44 24 04          	mov    %eax,0x4(%rsp)
  4016f8:	8b 44 24 04          	mov    0x4(%rsp),%eax
  4016fc:	69 c0 bc 61 00 00    	imul   $0x61bc,%eax,%eax
  401702:	89 44 24 04          	mov    %eax,0x4(%rsp)
  401706:	8b 44 24 1c          	mov    0x1c(%rsp),%eax
  40170a:	69 c0 d6 d1 00 00    	imul   $0xd1d6,%eax,%eax
  401710:	89 44 24 1c          	mov    %eax,0x1c(%rsp)
  401714:	8b 44 24 04          	mov    0x4(%rsp),%eax
  401718:	69 c0 be b5 00 00    	imul   $0xb5be,%eax,%eax
  40171e:	89 44 24 04          	mov    %eax,0x4(%rsp)
  401722:	8b 44 24 20          	mov    0x20(%rsp),%eax
  401726:	69 c0 9e 67 00 00    	imul   $0x679e,%eax,%eax
  40172c:	89 44 24 20          	mov    %eax,0x20(%rsp)
  401730:	8b 44 24 18          	mov    0x18(%rsp),%eax
  401734:	69 c0 4b e3 00 00    	imul   $0xe34b,%eax,%eax
  40173a:	89 44 24 18          	mov    %eax,0x18(%rsp)
  40173e:	8b 44 24 08          	mov    0x8(%rsp),%eax
  401742:	69 c0 ff 5d 00 00    	imul   $0x5dff,%eax,%eax
  401748:	89 44 24 08          	mov    %eax,0x8(%rsp)
  40174c:	8b 44 24 04          	mov    0x4(%rsp),%eax
  401750:	69 c0 36 c7 00 00    	imul   $0xc736,%eax,%eax
  401756:	89 44 24 04          	mov    %eax,0x4(%rsp)
  40175a:	8b 04 24             	mov    (%rsp),%eax
  40175d:	69 c0 45 7e 00 00    	imul   $0x7e45,%eax,%eax
  401763:	89 04 24             	mov    %eax,(%rsp)
  401766:	8b 44 24 18          	mov    0x18(%rsp),%eax
  40176a:	69 c0 12 cd 00 00    	imul   $0xcd12,%eax,%eax
  401770:	89 44 24 18          	mov    %eax,0x18(%rsp)
  401774:	8b 04 24             	mov    (%rsp),%eax
  401777:	69 c0 17 60 00 00    	imul   $0x6017,%eax,%eax
  40177d:	89 04 24             	mov    %eax,(%rsp)
  401780:	8b 44 24 04          	mov    0x4(%rsp),%eax
  401784:	69 c0 39 de 00 00    	imul   $0xde39,%eax,%eax
  40178a:	89 44 24 04          	mov    %eax,0x4(%rsp)
  40178e:	8b 04 24             	mov    (%rsp),%eax
  401791:	69 c0 48 03 00 00    	imul   $0x348,%eax,%eax
  401797:	89 04 24             	mov    %eax,(%rsp)
  40179a:	8b 44 24 04          	mov    0x4(%rsp),%eax
  40179e:	69 c0 41 f9 00 00    	imul   $0xf941,%eax,%eax
  4017a4:	89 44 24 04          	mov    %eax,0x4(%rsp)
  4017a8:	ba 00 00 00 00       	mov    $0x0,%edx
  4017ad:	b8 00 00 00 00       	mov    $0x0,%eax
  4017b2:	eb 0a                	jmp    4017be <scramble+0x42f>
  4017b4:	89 d1                	mov    %edx,%ecx
  4017b6:	8b 0c 8c             	mov    (%rsp,%rcx,4),%ecx
  4017b9:	01 c8                	add    %ecx,%eax
  4017bb:	83 c2 01             	add    $0x1,%edx
  4017be:	83 fa 09             	cmp    $0x9,%edx
  4017c1:	76 f1                	jbe    4017b4 <scramble+0x425>
  4017c3:	48 8b 74 24 28       	mov    0x28(%rsp),%rsi
  4017c8:	64 48 33 34 25 28 00 	xor    %fs:0x28,%rsi
  4017cf:	00 00 
  4017d1:	74 05                	je     4017d8 <scramble+0x449>
  4017d3:	e8 18 f5 ff ff       	callq  400cf0 <__stack_chk_fail@plt>
  4017d8:	48 83 c4 38          	add    $0x38,%rsp
  4017dc:	c3                   	retq   

00000000004017dd <getbuf>:
  4017dd:	48 83 ec 28          	sub    $0x28,%rsp
  4017e1:	48 89 e7             	mov    %rsp,%rdi
  4017e4:	e8 7e 02 00 00       	callq  401a67 <Gets>
  4017e9:	b8 01 00 00 00       	mov    $0x1,%eax
  4017ee:	48 83 c4 28          	add    $0x28,%rsp
  4017f2:	c3                   	retq   

00000000004017f3 <touch1>:
  4017f3:	48 83 ec 08          	sub    $0x8,%rsp
  4017f7:	c7 05 1b 3d 20 00 01 	movl   $0x1,0x203d1b(%rip)        # 60551c <vlevel>
  4017fe:	00 00 00 
  401801:	bf 6b 32 40 00       	mov    $0x40326b,%edi
  401806:	e8 c5 f4 ff ff       	callq  400cd0 <puts@plt>
  40180b:	bf 01 00 00 00       	mov    $0x1,%edi
  401810:	e8 97 04 00 00       	callq  401cac <validate>
  401815:	bf 00 00 00 00       	mov    $0x0,%edi
  40181a:	e8 31 f6 ff ff       	callq  400e50 <exit@plt>

000000000040181f <touch2>:
  40181f:	48 83 ec 08          	sub    $0x8,%rsp
  401823:	89 fa                	mov    %edi,%edx
  401825:	c7 05 ed 3c 20 00 02 	movl   $0x2,0x203ced(%rip)        # 60551c <vlevel>
  40182c:	00 00 00 
  40182f:	39 3d ef 3c 20 00    	cmp    %edi,0x203cef(%rip)        # 605524 <cookie>
  401835:	75 20                	jne    401857 <touch2+0x38>
  401837:	be 90 32 40 00       	mov    $0x403290,%esi
  40183c:	bf 01 00 00 00       	mov    $0x1,%edi
  401841:	b8 00 00 00 00       	mov    $0x0,%eax
  401846:	e8 b5 f5 ff ff       	callq  400e00 <__printf_chk@plt>
  40184b:	bf 02 00 00 00       	mov    $0x2,%edi
  401850:	e8 57 04 00 00       	callq  401cac <validate>
  401855:	eb 1e                	jmp    401875 <touch2+0x56>
  401857:	be b8 32 40 00       	mov    $0x4032b8,%esi
  40185c:	bf 01 00 00 00       	mov    $0x1,%edi
  401861:	b8 00 00 00 00       	mov    $0x0,%eax
  401866:	e8 95 f5 ff ff       	callq  400e00 <__printf_chk@plt>
  40186b:	bf 02 00 00 00       	mov    $0x2,%edi
  401870:	e8 13 05 00 00       	callq  401d88 <fail>
  401875:	bf 00 00 00 00       	mov    $0x0,%edi
  40187a:	e8 d1 f5 ff ff       	callq  400e50 <exit@plt>

000000000040187f <hexmatch>:
  40187f:	41 54                	push   %r12
  401881:	55                   	push   %rbp
  401882:	53                   	push   %rbx
  401883:	48 83 c4 80          	add    $0xffffffffffffff80,%rsp
  401887:	89 fd                	mov    %edi,%ebp
  401889:	48 89 f3             	mov    %rsi,%rbx
  40188c:	64 48 8b 04 25 28 00 	mov    %fs:0x28,%rax
  401893:	00 00 
  401895:	48 89 44 24 78       	mov    %rax,0x78(%rsp)
  40189a:	31 c0                	xor    %eax,%eax
  40189c:	e8 1f f5 ff ff       	callq  400dc0 <random@plt>
  4018a1:	48 89 c1             	mov    %rax,%rcx
  4018a4:	48 ba 0b d7 a3 70 3d 	movabs $0xa3d70a3d70a3d70b,%rdx
  4018ab:	0a d7 a3 
  4018ae:	48 f7 ea             	imul   %rdx
  4018b1:	48 01 ca             	add    %rcx,%rdx
  4018b4:	48 c1 fa 06          	sar    $0x6,%rdx
  4018b8:	48 89 c8             	mov    %rcx,%rax
  4018bb:	48 c1 f8 3f          	sar    $0x3f,%rax
  4018bf:	48 29 c2             	sub    %rax,%rdx
  4018c2:	48 8d 04 92          	lea    (%rdx,%rdx,4),%rax
  4018c6:	48 8d 14 80          	lea    (%rax,%rax,4),%rdx
  4018ca:	48 8d 04 95 00 00 00 	lea    0x0(,%rdx,4),%rax
  4018d1:	00 
  4018d2:	48 29 c1             	sub    %rax,%rcx
  4018d5:	4c 8d 24 0c          	lea    (%rsp,%rcx,1),%r12
  4018d9:	41 89 e8             	mov    %ebp,%r8d
  4018dc:	b9 88 32 40 00       	mov    $0x403288,%ecx
  4018e1:	48 c7 c2 ff ff ff ff 	mov    $0xffffffffffffffff,%rdx
  4018e8:	be 01 00 00 00       	mov    $0x1,%esi
  4018ed:	4c 89 e7             	mov    %r12,%rdi
  4018f0:	b8 00 00 00 00       	mov    $0x0,%eax
  4018f5:	e8 86 f5 ff ff       	callq  400e80 <__sprintf_chk@plt>
  4018fa:	ba 09 00 00 00       	mov    $0x9,%edx
  4018ff:	4c 89 e6             	mov    %r12,%rsi
  401902:	48 89 df             	mov    %rbx,%rdi
  401905:	e8 a6 f3 ff ff       	callq  400cb0 <strncmp@plt>
  40190a:	85 c0                	test   %eax,%eax
  40190c:	0f 94 c0             	sete   %al
  40190f:	48 8b 5c 24 78       	mov    0x78(%rsp),%rbx
  401914:	64 48 33 1c 25 28 00 	xor    %fs:0x28,%rbx
  40191b:	00 00 
  40191d:	74 05                	je     401924 <hexmatch+0xa5>
  40191f:	e8 cc f3 ff ff       	callq  400cf0 <__stack_chk_fail@plt>
  401924:	0f b6 c0             	movzbl %al,%eax
  401927:	48 83 ec 80          	sub    $0xffffffffffffff80,%rsp
  40192b:	5b                   	pop    %rbx
  40192c:	5d                   	pop    %rbp
  40192d:	41 5c                	pop    %r12
  40192f:	c3                   	retq   

0000000000401930 <touch3>:
  401930:	53                   	push   %rbx
  401931:	48 89 fb             	mov    %rdi,%rbx
  401934:	c7 05 de 3b 20 00 03 	movl   $0x3,0x203bde(%rip)        # 60551c <vlevel>
  40193b:	00 00 00 
  40193e:	48 89 fe             	mov    %rdi,%rsi
  401941:	8b 3d dd 3b 20 00    	mov    0x203bdd(%rip),%edi        # 605524 <cookie>
  401947:	e8 33 ff ff ff       	callq  40187f <hexmatch>
  40194c:	85 c0                	test   %eax,%eax
  40194e:	74 23                	je     401973 <touch3+0x43>
  401950:	48 89 da             	mov    %rbx,%rdx
  401953:	be e0 32 40 00       	mov    $0x4032e0,%esi
  401958:	bf 01 00 00 00       	mov    $0x1,%edi
  40195d:	b8 00 00 00 00       	mov    $0x0,%eax
  401962:	e8 99 f4 ff ff       	callq  400e00 <__printf_chk@plt>
  401967:	bf 03 00 00 00       	mov    $0x3,%edi
  40196c:	e8 3b 03 00 00       	callq  401cac <validate>
  401971:	eb 21                	jmp    401994 <touch3+0x64>
  401973:	48 89 da             	mov    %rbx,%rdx
  401976:	be 08 33 40 00       	mov    $0x403308,%esi
  40197b:	bf 01 00 00 00       	mov    $0x1,%edi
  401980:	b8 00 00 00 00       	mov    $0x0,%eax
  401985:	e8 76 f4 ff ff       	callq  400e00 <__printf_chk@plt>
  40198a:	bf 03 00 00 00       	mov    $0x3,%edi
  40198f:	e8 f4 03 00 00       	callq  401d88 <fail>
  401994:	bf 00 00 00 00       	mov    $0x0,%edi
  401999:	e8 b2 f4 ff ff       	callq  400e50 <exit@plt>

000000000040199e <test>:
  40199e:	48 83 ec 08          	sub    $0x8,%rsp
  4019a2:	b8 00 00 00 00       	mov    $0x0,%eax
  4019a7:	e8 31 fe ff ff       	callq  4017dd <getbuf>
  4019ac:	89 c2                	mov    %eax,%edx
  4019ae:	be 30 33 40 00       	mov    $0x403330,%esi
  4019b3:	bf 01 00 00 00       	mov    $0x1,%edi
  4019b8:	b8 00 00 00 00       	mov    $0x0,%eax
  4019bd:	e8 3e f4 ff ff       	callq  400e00 <__printf_chk@plt>
  4019c2:	48 83 c4 08          	add    $0x8,%rsp
  4019c6:	c3                   	retq   

00000000004019c7 <save_char>:
  4019c7:	8b 05 77 47 20 00    	mov    0x204777(%rip),%eax        # 606144 <gets_cnt>
  4019cd:	3d ff 03 00 00       	cmp    $0x3ff,%eax
  4019d2:	7f 49                	jg     401a1d <save_char+0x56>
  4019d4:	8d 14 40             	lea    (%rax,%rax,2),%edx
  4019d7:	89 f9                	mov    %edi,%ecx
  4019d9:	c0 e9 04             	shr    $0x4,%cl
  4019dc:	83 e1 0f             	and    $0xf,%ecx
  4019df:	0f b6 b1 50 36 40 00 	movzbl 0x403650(%rcx),%esi
  4019e6:	48 63 ca             	movslq %edx,%rcx
  4019e9:	40 88 b1 40 55 60 00 	mov    %sil,0x605540(%rcx)
  4019f0:	8d 4a 01             	lea    0x1(%rdx),%ecx
  4019f3:	83 e7 0f             	and    $0xf,%edi
  4019f6:	0f b6 b7 50 36 40 00 	movzbl 0x403650(%rdi),%esi
  4019fd:	48 63 c9             	movslq %ecx,%rcx
  401a00:	40 88 b1 40 55 60 00 	mov    %sil,0x605540(%rcx)
  401a07:	83 c2 02             	add    $0x2,%edx
  401a0a:	48 63 d2             	movslq %edx,%rdx
  401a0d:	c6 82 40 55 60 00 20 	movb   $0x20,0x605540(%rdx)
  401a14:	83 c0 01             	add    $0x1,%eax
  401a17:	89 05 27 47 20 00    	mov    %eax,0x204727(%rip)        # 606144 <gets_cnt>
  401a1d:	f3 c3                	repz retq 

0000000000401a1f <save_term>:
  401a1f:	8b 05 1f 47 20 00    	mov    0x20471f(%rip),%eax        # 606144 <gets_cnt>
  401a25:	8d 04 40             	lea    (%rax,%rax,2),%eax
  401a28:	48 98                	cltq   
  401a2a:	c6 80 40 55 60 00 00 	movb   $0x0,0x605540(%rax)
  401a31:	c3                   	retq   

0000000000401a32 <check_fail>:
  401a32:	48 83 ec 08          	sub    $0x8,%rsp
  401a36:	0f be 15 0b 47 20 00 	movsbl 0x20470b(%rip),%edx        # 606148 <target_prefix>
  401a3d:	41 b8 40 55 60 00    	mov    $0x605540,%r8d
  401a43:	8b 0d cf 3a 20 00    	mov    0x203acf(%rip),%ecx        # 605518 <check_level>
  401a49:	be 53 33 40 00       	mov    $0x403353,%esi
  401a4e:	bf 01 00 00 00       	mov    $0x1,%edi
  401a53:	b8 00 00 00 00       	mov    $0x0,%eax
  401a58:	e8 a3 f3 ff ff       	callq  400e00 <__printf_chk@plt>
  401a5d:	bf 01 00 00 00       	mov    $0x1,%edi
  401a62:	e8 e9 f3 ff ff       	callq  400e50 <exit@plt>

0000000000401a67 <Gets>:
  401a67:	41 54                	push   %r12
  401a69:	55                   	push   %rbp
  401a6a:	53                   	push   %rbx
  401a6b:	49 89 fc             	mov    %rdi,%r12
  401a6e:	c7 05 cc 46 20 00 00 	movl   $0x0,0x2046cc(%rip)        # 606144 <gets_cnt>
  401a75:	00 00 00 
  401a78:	48 89 fb             	mov    %rdi,%rbx
  401a7b:	eb 11                	jmp    401a8e <Gets+0x27>
  401a7d:	48 8d 6b 01          	lea    0x1(%rbx),%rbp
  401a81:	88 03                	mov    %al,(%rbx)
  401a83:	0f b6 f8             	movzbl %al,%edi
  401a86:	e8 3c ff ff ff       	callq  4019c7 <save_char>
  401a8b:	48 89 eb             	mov    %rbp,%rbx
  401a8e:	48 8b 3d 7b 3a 20 00 	mov    0x203a7b(%rip),%rdi        # 605510 <infile>
  401a95:	e8 36 f3 ff ff       	callq  400dd0 <_IO_getc@plt>
  401a9a:	83 f8 ff             	cmp    $0xffffffff,%eax
  401a9d:	74 05                	je     401aa4 <Gets+0x3d>
  401a9f:	83 f8 0a             	cmp    $0xa,%eax
  401aa2:	75 d9                	jne    401a7d <Gets+0x16>
  401aa4:	c6 03 00             	movb   $0x0,(%rbx)
  401aa7:	b8 00 00 00 00       	mov    $0x0,%eax
  401aac:	e8 6e ff ff ff       	callq  401a1f <save_term>
  401ab1:	4c 89 e0             	mov    %r12,%rax
  401ab4:	5b                   	pop    %rbx
  401ab5:	5d                   	pop    %rbp
  401ab6:	41 5c                	pop    %r12
  401ab8:	c3                   	retq   

0000000000401ab9 <notify_server>:
  401ab9:	53                   	push   %rbx
  401aba:	48 81 ec 10 40 00 00 	sub    $0x4010,%rsp
  401ac1:	64 48 8b 04 25 28 00 	mov    %fs:0x28,%rax
  401ac8:	00 00 
  401aca:	48 89 84 24 08 40 00 	mov    %rax,0x4008(%rsp)
  401ad1:	00 
  401ad2:	31 c0                	xor    %eax,%eax
  401ad4:	83 3d 4d 3a 20 00 00 	cmpl   $0x0,0x203a4d(%rip)        # 605528 <is_checker>
  401adb:	0f 85 aa 01 00 00    	jne    401c8b <notify_server+0x1d2>
  401ae1:	89 fb                	mov    %edi,%ebx
  401ae3:	8b 05 5b 46 20 00    	mov    0x20465b(%rip),%eax        # 606144 <gets_cnt>
  401ae9:	83 c0 64             	add    $0x64,%eax
  401aec:	3d 00 20 00 00       	cmp    $0x2000,%eax
  401af1:	7e 1e                	jle    401b11 <notify_server+0x58>
  401af3:	be 88 34 40 00       	mov    $0x403488,%esi
  401af8:	bf 01 00 00 00       	mov    $0x1,%edi
  401afd:	b8 00 00 00 00       	mov    $0x0,%eax
  401b02:	e8 f9 f2 ff ff       	callq  400e00 <__printf_chk@plt>
  401b07:	bf 01 00 00 00       	mov    $0x1,%edi
  401b0c:	e8 3f f3 ff ff       	callq  400e50 <exit@plt>
  401b11:	0f be 05 30 46 20 00 	movsbl 0x204630(%rip),%eax        # 606148 <target_prefix>
  401b18:	83 3d 89 39 20 00 00 	cmpl   $0x0,0x203989(%rip)        # 6054a8 <notify>
  401b1f:	74 08                	je     401b29 <notify_server+0x70>
  401b21:	8b 15 f9 39 20 00    	mov    0x2039f9(%rip),%edx        # 605520 <authkey>
  401b27:	eb 05                	jmp    401b2e <notify_server+0x75>
  401b29:	ba ff ff ff ff       	mov    $0xffffffff,%edx
  401b2e:	85 db                	test   %ebx,%ebx
  401b30:	74 08                	je     401b3a <notify_server+0x81>
  401b32:	41 b9 69 33 40 00    	mov    $0x403369,%r9d
  401b38:	eb 06                	jmp    401b40 <notify_server+0x87>
  401b3a:	41 b9 6e 33 40 00    	mov    $0x40336e,%r9d
  401b40:	68 40 55 60 00       	pushq  $0x605540
  401b45:	56                   	push   %rsi
  401b46:	50                   	push   %rax
  401b47:	52                   	push   %rdx
  401b48:	44 8b 05 19 36 20 00 	mov    0x203619(%rip),%r8d        # 605168 <target_id>
  401b4f:	b9 73 33 40 00       	mov    $0x403373,%ecx
  401b54:	ba 00 20 00 00       	mov    $0x2000,%edx
  401b59:	be 01 00 00 00       	mov    $0x1,%esi
  401b5e:	48 8d 7c 24 20       	lea    0x20(%rsp),%rdi
  401b63:	b8 00 00 00 00       	mov    $0x0,%eax
  401b68:	e8 13 f3 ff ff       	callq  400e80 <__sprintf_chk@plt>
  401b6d:	48 83 c4 20          	add    $0x20,%rsp
  401b71:	83 3d 30 39 20 00 00 	cmpl   $0x0,0x203930(%rip)        # 6054a8 <notify>
  401b78:	0f 84 81 00 00 00    	je     401bff <notify_server+0x146>
  401b7e:	85 db                	test   %ebx,%ebx
  401b80:	74 6e                	je     401bf0 <notify_server+0x137>
  401b82:	4c 8d 8c 24 00 20 00 	lea    0x2000(%rsp),%r9
  401b89:	00 
  401b8a:	41 b8 00 00 00 00    	mov    $0x0,%r8d
  401b90:	48 89 e1             	mov    %rsp,%rcx
  401b93:	48 8b 15 d6 35 20 00 	mov    0x2035d6(%rip),%rdx        # 605170 <lab>
  401b9a:	48 8b 35 d7 35 20 00 	mov    0x2035d7(%rip),%rsi        # 605178 <course>
  401ba1:	48 8b 3d b8 35 20 00 	mov    0x2035b8(%rip),%rdi        # 605160 <user_id>
  401ba8:	e8 09 11 00 00       	callq  402cb6 <driver_post>
  401bad:	85 c0                	test   %eax,%eax
  401baf:	79 26                	jns    401bd7 <notify_server+0x11e>
  401bb1:	48 8d 94 24 00 20 00 	lea    0x2000(%rsp),%rdx
  401bb8:	00 
  401bb9:	be 8f 33 40 00       	mov    $0x40338f,%esi
  401bbe:	bf 01 00 00 00       	mov    $0x1,%edi
  401bc3:	b8 00 00 00 00       	mov    $0x0,%eax
  401bc8:	e8 33 f2 ff ff       	callq  400e00 <__printf_chk@plt>
  401bcd:	bf 01 00 00 00       	mov    $0x1,%edi
  401bd2:	e8 79 f2 ff ff       	callq  400e50 <exit@plt>
  401bd7:	bf b8 34 40 00       	mov    $0x4034b8,%edi
  401bdc:	e8 ef f0 ff ff       	callq  400cd0 <puts@plt>
  401be1:	bf 9b 33 40 00       	mov    $0x40339b,%edi
  401be6:	e8 e5 f0 ff ff       	callq  400cd0 <puts@plt>
  401beb:	e9 9b 00 00 00       	jmpq   401c8b <notify_server+0x1d2>
  401bf0:	bf a5 33 40 00       	mov    $0x4033a5,%edi
  401bf5:	e8 d6 f0 ff ff       	callq  400cd0 <puts@plt>
  401bfa:	e9 8c 00 00 00       	jmpq   401c8b <notify_server+0x1d2>
  401bff:	85 db                	test   %ebx,%ebx
  401c01:	74 07                	je     401c0a <notify_server+0x151>
  401c03:	ba 69 33 40 00       	mov    $0x403369,%edx
  401c08:	eb 05                	jmp    401c0f <notify_server+0x156>
  401c0a:	ba 6e 33 40 00       	mov    $0x40336e,%edx
  401c0f:	be f0 34 40 00       	mov    $0x4034f0,%esi
  401c14:	bf 01 00 00 00       	mov    $0x1,%edi
  401c19:	b8 00 00 00 00       	mov    $0x0,%eax
  401c1e:	e8 dd f1 ff ff       	callq  400e00 <__printf_chk@plt>
  401c23:	48 8b 15 36 35 20 00 	mov    0x203536(%rip),%rdx        # 605160 <user_id>
  401c2a:	be ac 33 40 00       	mov    $0x4033ac,%esi
  401c2f:	bf 01 00 00 00       	mov    $0x1,%edi
  401c34:	b8 00 00 00 00       	mov    $0x0,%eax
  401c39:	e8 c2 f1 ff ff       	callq  400e00 <__printf_chk@plt>
  401c3e:	48 8b 15 33 35 20 00 	mov    0x203533(%rip),%rdx        # 605178 <course>
  401c45:	be b9 33 40 00       	mov    $0x4033b9,%esi
  401c4a:	bf 01 00 00 00       	mov    $0x1,%edi
  401c4f:	b8 00 00 00 00       	mov    $0x0,%eax
  401c54:	e8 a7 f1 ff ff       	callq  400e00 <__printf_chk@plt>
  401c59:	48 8b 15 10 35 20 00 	mov    0x203510(%rip),%rdx        # 605170 <lab>
  401c60:	be c5 33 40 00       	mov    $0x4033c5,%esi
  401c65:	bf 01 00 00 00       	mov    $0x1,%edi
  401c6a:	b8 00 00 00 00       	mov    $0x0,%eax
  401c6f:	e8 8c f1 ff ff       	callq  400e00 <__printf_chk@plt>
  401c74:	48 89 e2             	mov    %rsp,%rdx
  401c77:	be ce 33 40 00       	mov    $0x4033ce,%esi
  401c7c:	bf 01 00 00 00       	mov    $0x1,%edi
  401c81:	b8 00 00 00 00       	mov    $0x0,%eax
  401c86:	e8 75 f1 ff ff       	callq  400e00 <__printf_chk@plt>
  401c8b:	48 8b 84 24 08 40 00 	mov    0x4008(%rsp),%rax
  401c92:	00 
  401c93:	64 48 33 04 25 28 00 	xor    %fs:0x28,%rax
  401c9a:	00 00 
  401c9c:	74 05                	je     401ca3 <notify_server+0x1ea>
  401c9e:	e8 4d f0 ff ff       	callq  400cf0 <__stack_chk_fail@plt>
  401ca3:	48 81 c4 10 40 00 00 	add    $0x4010,%rsp
  401caa:	5b                   	pop    %rbx
  401cab:	c3                   	retq   

0000000000401cac <validate>:
  401cac:	4c 8d 54 24 08       	lea    0x8(%rsp),%r10
  401cb1:	48 83 e4 f0          	and    $0xfffffffffffffff0,%rsp
  401cb5:	41 ff 72 f8          	pushq  -0x8(%r10)
  401cb9:	55                   	push   %rbp
  401cba:	48 89 e5             	mov    %rsp,%rbp
  401cbd:	41 52                	push   %r10
  401cbf:	53                   	push   %rbx
  401cc0:	89 fb                	mov    %edi,%ebx
  401cc2:	83 3d 5f 38 20 00 00 	cmpl   $0x0,0x20385f(%rip)        # 605528 <is_checker>
  401cc9:	74 6b                	je     401d36 <validate+0x8a>
  401ccb:	39 3d 4b 38 20 00    	cmp    %edi,0x20384b(%rip)        # 60551c <vlevel>
  401cd1:	74 14                	je     401ce7 <validate+0x3b>
  401cd3:	bf da 33 40 00       	mov    $0x4033da,%edi
  401cd8:	e8 f3 ef ff ff       	callq  400cd0 <puts@plt>
  401cdd:	b8 00 00 00 00       	mov    $0x0,%eax
  401ce2:	e8 4b fd ff ff       	callq  401a32 <check_fail>
  401ce7:	8b 15 2b 38 20 00    	mov    0x20382b(%rip),%edx        # 605518 <check_level>
  401ced:	39 d7                	cmp    %edx,%edi
  401cef:	74 20                	je     401d11 <validate+0x65>
  401cf1:	89 f9                	mov    %edi,%ecx
  401cf3:	be 18 35 40 00       	mov    $0x403518,%esi
  401cf8:	bf 01 00 00 00       	mov    $0x1,%edi
  401cfd:	b8 00 00 00 00       	mov    $0x0,%eax
  401d02:	e8 f9 f0 ff ff       	callq  400e00 <__printf_chk@plt>
  401d07:	b8 00 00 00 00       	mov    $0x0,%eax
  401d0c:	e8 21 fd ff ff       	callq  401a32 <check_fail>
  401d11:	0f be 15 30 44 20 00 	movsbl 0x204430(%rip),%edx        # 606148 <target_prefix>
  401d18:	41 b8 40 55 60 00    	mov    $0x605540,%r8d
  401d1e:	89 f9                	mov    %edi,%ecx
  401d20:	be f8 33 40 00       	mov    $0x4033f8,%esi
  401d25:	bf 01 00 00 00       	mov    $0x1,%edi
  401d2a:	b8 00 00 00 00       	mov    $0x0,%eax
  401d2f:	e8 cc f0 ff ff       	callq  400e00 <__printf_chk@plt>
  401d34:	eb 49                	jmp    401d7f <validate+0xd3>
  401d36:	3b 3d e0 37 20 00    	cmp    0x2037e0(%rip),%edi        # 60551c <vlevel>
  401d3c:	74 18                	je     401d56 <validate+0xaa>
  401d3e:	bf da 33 40 00       	mov    $0x4033da,%edi
  401d43:	e8 88 ef ff ff       	callq  400cd0 <puts@plt>
  401d48:	89 de                	mov    %ebx,%esi
  401d4a:	bf 00 00 00 00       	mov    $0x0,%edi
  401d4f:	e8 65 fd ff ff       	callq  401ab9 <notify_server>
  401d54:	eb 29                	jmp    401d7f <validate+0xd3>
  401d56:	0f be 0d eb 43 20 00 	movsbl 0x2043eb(%rip),%ecx        # 606148 <target_prefix>
  401d5d:	89 fa                	mov    %edi,%edx
  401d5f:	be 40 35 40 00       	mov    $0x403540,%esi
  401d64:	bf 01 00 00 00       	mov    $0x1,%edi
  401d69:	b8 00 00 00 00       	mov    $0x0,%eax
  401d6e:	e8 8d f0 ff ff       	callq  400e00 <__printf_chk@plt>
  401d73:	89 de                	mov    %ebx,%esi
  401d75:	bf 01 00 00 00       	mov    $0x1,%edi
  401d7a:	e8 3a fd ff ff       	callq  401ab9 <notify_server>
  401d7f:	5b                   	pop    %rbx
  401d80:	41 5a                	pop    %r10
  401d82:	5d                   	pop    %rbp
  401d83:	49 8d 62 f8          	lea    -0x8(%r10),%rsp
  401d87:	c3                   	retq   

0000000000401d88 <fail>:
  401d88:	48 83 ec 08          	sub    $0x8,%rsp
  401d8c:	83 3d 95 37 20 00 00 	cmpl   $0x0,0x203795(%rip)        # 605528 <is_checker>
  401d93:	74 0a                	je     401d9f <fail+0x17>
  401d95:	b8 00 00 00 00       	mov    $0x0,%eax
  401d9a:	e8 93 fc ff ff       	callq  401a32 <check_fail>
  401d9f:	89 fe                	mov    %edi,%esi
  401da1:	bf 00 00 00 00       	mov    $0x0,%edi
  401da6:	e8 0e fd ff ff       	callq  401ab9 <notify_server>
  401dab:	48 83 c4 08          	add    $0x8,%rsp
  401daf:	c3                   	retq   

0000000000401db0 <bushandler>:
  401db0:	48 83 ec 08          	sub    $0x8,%rsp
  401db4:	83 3d 6d 37 20 00 00 	cmpl   $0x0,0x20376d(%rip)        # 605528 <is_checker>
  401dbb:	74 14                	je     401dd1 <bushandler+0x21>
  401dbd:	bf 0d 34 40 00       	mov    $0x40340d,%edi
  401dc2:	e8 09 ef ff ff       	callq  400cd0 <puts@plt>
  401dc7:	b8 00 00 00 00       	mov    $0x0,%eax
  401dcc:	e8 61 fc ff ff       	callq  401a32 <check_fail>
  401dd1:	bf 78 35 40 00       	mov    $0x403578,%edi
  401dd6:	e8 f5 ee ff ff       	callq  400cd0 <puts@plt>
  401ddb:	bf 17 34 40 00       	mov    $0x403417,%edi
  401de0:	e8 eb ee ff ff       	callq  400cd0 <puts@plt>
  401de5:	be 00 00 00 00       	mov    $0x0,%esi
  401dea:	bf 00 00 00 00       	mov    $0x0,%edi
  401def:	e8 c5 fc ff ff       	callq  401ab9 <notify_server>
  401df4:	bf 01 00 00 00       	mov    $0x1,%edi
  401df9:	e8 52 f0 ff ff       	callq  400e50 <exit@plt>

0000000000401dfe <seghandler>:
  401dfe:	48 83 ec 08          	sub    $0x8,%rsp
  401e02:	83 3d 1f 37 20 00 00 	cmpl   $0x0,0x20371f(%rip)        # 605528 <is_checker>
  401e09:	74 14                	je     401e1f <seghandler+0x21>
  401e0b:	bf 2d 34 40 00       	mov    $0x40342d,%edi
  401e10:	e8 bb ee ff ff       	callq  400cd0 <puts@plt>
  401e15:	b8 00 00 00 00       	mov    $0x0,%eax
  401e1a:	e8 13 fc ff ff       	callq  401a32 <check_fail>
  401e1f:	bf 98 35 40 00       	mov    $0x403598,%edi
  401e24:	e8 a7 ee ff ff       	callq  400cd0 <puts@plt>
  401e29:	bf 17 34 40 00       	mov    $0x403417,%edi
  401e2e:	e8 9d ee ff ff       	callq  400cd0 <puts@plt>
  401e33:	be 00 00 00 00       	mov    $0x0,%esi
  401e38:	bf 00 00 00 00       	mov    $0x0,%edi
  401e3d:	e8 77 fc ff ff       	callq  401ab9 <notify_server>
  401e42:	bf 01 00 00 00       	mov    $0x1,%edi
  401e47:	e8 04 f0 ff ff       	callq  400e50 <exit@plt>

0000000000401e4c <illegalhandler>:
  401e4c:	48 83 ec 08          	sub    $0x8,%rsp
  401e50:	83 3d d1 36 20 00 00 	cmpl   $0x0,0x2036d1(%rip)        # 605528 <is_checker>
  401e57:	74 14                	je     401e6d <illegalhandler+0x21>
  401e59:	bf 40 34 40 00       	mov    $0x403440,%edi
  401e5e:	e8 6d ee ff ff       	callq  400cd0 <puts@plt>
  401e63:	b8 00 00 00 00       	mov    $0x0,%eax
  401e68:	e8 c5 fb ff ff       	callq  401a32 <check_fail>
  401e6d:	bf c0 35 40 00       	mov    $0x4035c0,%edi
  401e72:	e8 59 ee ff ff       	callq  400cd0 <puts@plt>
  401e77:	bf 17 34 40 00       	mov    $0x403417,%edi
  401e7c:	e8 4f ee ff ff       	callq  400cd0 <puts@plt>
  401e81:	be 00 00 00 00       	mov    $0x0,%esi
  401e86:	bf 00 00 00 00       	mov    $0x0,%edi
  401e8b:	e8 29 fc ff ff       	callq  401ab9 <notify_server>
  401e90:	bf 01 00 00 00       	mov    $0x1,%edi
  401e95:	e8 b6 ef ff ff       	callq  400e50 <exit@plt>

0000000000401e9a <sigalrmhandler>:
  401e9a:	48 83 ec 08          	sub    $0x8,%rsp
  401e9e:	83 3d 83 36 20 00 00 	cmpl   $0x0,0x203683(%rip)        # 605528 <is_checker>
  401ea5:	74 14                	je     401ebb <sigalrmhandler+0x21>
  401ea7:	bf 54 34 40 00       	mov    $0x403454,%edi
  401eac:	e8 1f ee ff ff       	callq  400cd0 <puts@plt>
  401eb1:	b8 00 00 00 00       	mov    $0x0,%eax
  401eb6:	e8 77 fb ff ff       	callq  401a32 <check_fail>
  401ebb:	ba 05 00 00 00       	mov    $0x5,%edx
  401ec0:	be f0 35 40 00       	mov    $0x4035f0,%esi
  401ec5:	bf 01 00 00 00       	mov    $0x1,%edi
  401eca:	b8 00 00 00 00       	mov    $0x0,%eax
  401ecf:	e8 2c ef ff ff       	callq  400e00 <__printf_chk@plt>
  401ed4:	be 00 00 00 00       	mov    $0x0,%esi
  401ed9:	bf 00 00 00 00       	mov    $0x0,%edi
  401ede:	e8 d6 fb ff ff       	callq  401ab9 <notify_server>
  401ee3:	bf 01 00 00 00       	mov    $0x1,%edi
  401ee8:	e8 63 ef ff ff       	callq  400e50 <exit@plt>

0000000000401eed <launch>:
  401eed:	55                   	push   %rbp
  401eee:	48 89 e5             	mov    %rsp,%rbp
  401ef1:	48 83 ec 10          	sub    $0x10,%rsp
  401ef5:	48 89 fa             	mov    %rdi,%rdx
  401ef8:	64 48 8b 04 25 28 00 	mov    %fs:0x28,%rax
  401eff:	00 00 
  401f01:	48 89 45 f8          	mov    %rax,-0x8(%rbp)
  401f05:	31 c0                	xor    %eax,%eax
  401f07:	48 8d 47 1e          	lea    0x1e(%rdi),%rax
  401f0b:	48 83 e0 f0          	and    $0xfffffffffffffff0,%rax
  401f0f:	48 29 c4             	sub    %rax,%rsp
  401f12:	48 8d 7c 24 0f       	lea    0xf(%rsp),%rdi
  401f17:	48 83 e7 f0          	and    $0xfffffffffffffff0,%rdi
  401f1b:	be f4 00 00 00       	mov    $0xf4,%esi
  401f20:	e8 eb ed ff ff       	callq  400d10 <memset@plt>
  401f25:	48 8b 05 94 35 20 00 	mov    0x203594(%rip),%rax        # 6054c0 <stdin@@GLIBC_2.2.5>
  401f2c:	48 39 05 dd 35 20 00 	cmp    %rax,0x2035dd(%rip)        # 605510 <infile>
  401f33:	75 14                	jne    401f49 <launch+0x5c>
  401f35:	be 5c 34 40 00       	mov    $0x40345c,%esi
  401f3a:	bf 01 00 00 00       	mov    $0x1,%edi
  401f3f:	b8 00 00 00 00       	mov    $0x0,%eax
  401f44:	e8 b7 ee ff ff       	callq  400e00 <__printf_chk@plt>
  401f49:	c7 05 c9 35 20 00 00 	movl   $0x0,0x2035c9(%rip)        # 60551c <vlevel>
  401f50:	00 00 00 
  401f53:	b8 00 00 00 00       	mov    $0x0,%eax
  401f58:	e8 41 fa ff ff       	callq  40199e <test>
  401f5d:	83 3d c4 35 20 00 00 	cmpl   $0x0,0x2035c4(%rip)        # 605528 <is_checker>
  401f64:	74 14                	je     401f7a <launch+0x8d>
  401f66:	bf 69 34 40 00       	mov    $0x403469,%edi
  401f6b:	e8 60 ed ff ff       	callq  400cd0 <puts@plt>
  401f70:	b8 00 00 00 00       	mov    $0x0,%eax
  401f75:	e8 b8 fa ff ff       	callq  401a32 <check_fail>
  401f7a:	bf 74 34 40 00       	mov    $0x403474,%edi
  401f7f:	e8 4c ed ff ff       	callq  400cd0 <puts@plt>
  401f84:	48 8b 45 f8          	mov    -0x8(%rbp),%rax
  401f88:	64 48 33 04 25 28 00 	xor    %fs:0x28,%rax
  401f8f:	00 00 
  401f91:	74 05                	je     401f98 <launch+0xab>
  401f93:	e8 58 ed ff ff       	callq  400cf0 <__stack_chk_fail@plt>
  401f98:	c9                   	leaveq 
  401f99:	c3                   	retq   

0000000000401f9a <stable_launch>:
  401f9a:	53                   	push   %rbx
  401f9b:	48 89 3d 66 35 20 00 	mov    %rdi,0x203566(%rip)        # 605508 <global_offset>
  401fa2:	41 b9 00 00 00 00    	mov    $0x0,%r9d
  401fa8:	41 b8 00 00 00 00    	mov    $0x0,%r8d
  401fae:	b9 32 01 00 00       	mov    $0x132,%ecx
  401fb3:	ba 07 00 00 00       	mov    $0x7,%edx
  401fb8:	be 00 00 10 00       	mov    $0x100000,%esi
  401fbd:	bf 00 60 58 55       	mov    $0x55586000,%edi
  401fc2:	e8 39 ed ff ff       	callq  400d00 <mmap@plt>
  401fc7:	48 89 c3             	mov    %rax,%rbx
  401fca:	48 3d 00 60 58 55    	cmp    $0x55586000,%rax
  401fd0:	74 37                	je     402009 <stable_launch+0x6f>
  401fd2:	be 00 00 10 00       	mov    $0x100000,%esi
  401fd7:	48 89 c7             	mov    %rax,%rdi
  401fda:	e8 11 ee ff ff       	callq  400df0 <munmap@plt>
  401fdf:	b9 00 60 58 55       	mov    $0x55586000,%ecx
  401fe4:	ba 28 36 40 00       	mov    $0x403628,%edx
  401fe9:	be 01 00 00 00       	mov    $0x1,%esi
  401fee:	48 8b 3d eb 34 20 00 	mov    0x2034eb(%rip),%rdi        # 6054e0 <stderr@@GLIBC_2.2.5>
  401ff5:	b8 00 00 00 00       	mov    $0x0,%eax
  401ffa:	e8 71 ee ff ff       	callq  400e70 <__fprintf_chk@plt>
  401fff:	bf 01 00 00 00       	mov    $0x1,%edi
  402004:	e8 47 ee ff ff       	callq  400e50 <exit@plt>
  402009:	48 8d 90 f8 ff 0f 00 	lea    0xffff8(%rax),%rdx
  402010:	48 89 15 39 41 20 00 	mov    %rdx,0x204139(%rip)        # 606150 <stack_top>
  402017:	48 89 e0             	mov    %rsp,%rax
  40201a:	48 89 d4             	mov    %rdx,%rsp
  40201d:	48 89 c2             	mov    %rax,%rdx
  402020:	48 89 15 d9 34 20 00 	mov    %rdx,0x2034d9(%rip)        # 605500 <global_save_stack>
  402027:	48 8b 3d da 34 20 00 	mov    0x2034da(%rip),%rdi        # 605508 <global_offset>
  40202e:	e8 ba fe ff ff       	callq  401eed <launch>
  402033:	48 8b 05 c6 34 20 00 	mov    0x2034c6(%rip),%rax        # 605500 <global_save_stack>
  40203a:	48 89 c4             	mov    %rax,%rsp
  40203d:	be 00 00 10 00       	mov    $0x100000,%esi
  402042:	48 89 df             	mov    %rbx,%rdi
  402045:	e8 a6 ed ff ff       	callq  400df0 <munmap@plt>
  40204a:	5b                   	pop    %rbx
  40204b:	c3                   	retq   

000000000040204c <rio_readinitb>:
  40204c:	89 37                	mov    %esi,(%rdi)
  40204e:	c7 47 04 00 00 00 00 	movl   $0x0,0x4(%rdi)
  402055:	48 8d 47 10          	lea    0x10(%rdi),%rax
  402059:	48 89 47 08          	mov    %rax,0x8(%rdi)
  40205d:	c3                   	retq   

000000000040205e <sigalrm_handler>:
  40205e:	48 83 ec 08          	sub    $0x8,%rsp
  402062:	b9 00 00 00 00       	mov    $0x0,%ecx
  402067:	ba 60 36 40 00       	mov    $0x403660,%edx
  40206c:	be 01 00 00 00       	mov    $0x1,%esi
  402071:	48 8b 3d 68 34 20 00 	mov    0x203468(%rip),%rdi        # 6054e0 <stderr@@GLIBC_2.2.5>
  402078:	b8 00 00 00 00       	mov    $0x0,%eax
  40207d:	e8 ee ed ff ff       	callq  400e70 <__fprintf_chk@plt>
  402082:	bf 01 00 00 00       	mov    $0x1,%edi
  402087:	e8 c4 ed ff ff       	callq  400e50 <exit@plt>

000000000040208c <rio_writen>:
  40208c:	41 55                	push   %r13
  40208e:	41 54                	push   %r12
  402090:	55                   	push   %rbp
  402091:	53                   	push   %rbx
  402092:	48 83 ec 08          	sub    $0x8,%rsp
  402096:	41 89 fc             	mov    %edi,%r12d
  402099:	48 89 f5             	mov    %rsi,%rbp
  40209c:	49 89 d5             	mov    %rdx,%r13
  40209f:	48 89 d3             	mov    %rdx,%rbx
  4020a2:	eb 28                	jmp    4020cc <rio_writen+0x40>
  4020a4:	48 89 da             	mov    %rbx,%rdx
  4020a7:	48 89 ee             	mov    %rbp,%rsi
  4020aa:	44 89 e7             	mov    %r12d,%edi
  4020ad:	e8 2e ec ff ff       	callq  400ce0 <write@plt>
  4020b2:	48 85 c0             	test   %rax,%rax
  4020b5:	7f 0f                	jg     4020c6 <rio_writen+0x3a>
  4020b7:	e8 d4 eb ff ff       	callq  400c90 <__errno_location@plt>
  4020bc:	83 38 04             	cmpl   $0x4,(%rax)
  4020bf:	75 15                	jne    4020d6 <rio_writen+0x4a>
  4020c1:	b8 00 00 00 00       	mov    $0x0,%eax
  4020c6:	48 29 c3             	sub    %rax,%rbx
  4020c9:	48 01 c5             	add    %rax,%rbp
  4020cc:	48 85 db             	test   %rbx,%rbx
  4020cf:	75 d3                	jne    4020a4 <rio_writen+0x18>
  4020d1:	4c 89 e8             	mov    %r13,%rax
  4020d4:	eb 07                	jmp    4020dd <rio_writen+0x51>
  4020d6:	48 c7 c0 ff ff ff ff 	mov    $0xffffffffffffffff,%rax
  4020dd:	48 83 c4 08          	add    $0x8,%rsp
  4020e1:	5b                   	pop    %rbx
  4020e2:	5d                   	pop    %rbp
  4020e3:	41 5c                	pop    %r12
  4020e5:	41 5d                	pop    %r13
  4020e7:	c3                   	retq   

00000000004020e8 <rio_read>:
  4020e8:	41 55                	push   %r13
  4020ea:	41 54                	push   %r12
  4020ec:	55                   	push   %rbp
  4020ed:	53                   	push   %rbx
  4020ee:	48 83 ec 08          	sub    $0x8,%rsp
  4020f2:	48 89 fb             	mov    %rdi,%rbx
  4020f5:	49 89 f5             	mov    %rsi,%r13
  4020f8:	49 89 d4             	mov    %rdx,%r12
  4020fb:	eb 2e                	jmp    40212b <rio_read+0x43>
  4020fd:	48 8d 6b 10          	lea    0x10(%rbx),%rbp
  402101:	8b 3b                	mov    (%rbx),%edi
  402103:	ba 00 20 00 00       	mov    $0x2000,%edx
  402108:	48 89 ee             	mov    %rbp,%rsi
  40210b:	e8 30 ec ff ff       	callq  400d40 <read@plt>
  402110:	89 43 04             	mov    %eax,0x4(%rbx)
  402113:	85 c0                	test   %eax,%eax
  402115:	79 0c                	jns    402123 <rio_read+0x3b>
  402117:	e8 74 eb ff ff       	callq  400c90 <__errno_location@plt>
  40211c:	83 38 04             	cmpl   $0x4,(%rax)
  40211f:	74 0a                	je     40212b <rio_read+0x43>
  402121:	eb 37                	jmp    40215a <rio_read+0x72>
  402123:	85 c0                	test   %eax,%eax
  402125:	74 3c                	je     402163 <rio_read+0x7b>
  402127:	48 89 6b 08          	mov    %rbp,0x8(%rbx)
  40212b:	8b 6b 04             	mov    0x4(%rbx),%ebp
  40212e:	85 ed                	test   %ebp,%ebp
  402130:	7e cb                	jle    4020fd <rio_read+0x15>
  402132:	89 e8                	mov    %ebp,%eax
  402134:	49 39 c4             	cmp    %rax,%r12
  402137:	77 03                	ja     40213c <rio_read+0x54>
  402139:	44 89 e5             	mov    %r12d,%ebp
  40213c:	4c 63 e5             	movslq %ebp,%r12
  40213f:	48 8b 73 08          	mov    0x8(%rbx),%rsi
  402143:	4c 89 e2             	mov    %r12,%rdx
  402146:	4c 89 ef             	mov    %r13,%rdi
  402149:	e8 52 ec ff ff       	callq  400da0 <memcpy@plt>
  40214e:	4c 01 63 08          	add    %r12,0x8(%rbx)
  402152:	29 6b 04             	sub    %ebp,0x4(%rbx)
  402155:	4c 89 e0             	mov    %r12,%rax
  402158:	eb 0e                	jmp    402168 <rio_read+0x80>
  40215a:	48 c7 c0 ff ff ff ff 	mov    $0xffffffffffffffff,%rax
  402161:	eb 05                	jmp    402168 <rio_read+0x80>
  402163:	b8 00 00 00 00       	mov    $0x0,%eax
  402168:	48 83 c4 08          	add    $0x8,%rsp
  40216c:	5b                   	pop    %rbx
  40216d:	5d                   	pop    %rbp
  40216e:	41 5c                	pop    %r12
  402170:	41 5d                	pop    %r13
  402172:	c3                   	retq   

0000000000402173 <rio_readlineb>:
  402173:	41 55                	push   %r13
  402175:	41 54                	push   %r12
  402177:	55                   	push   %rbp
  402178:	53                   	push   %rbx
  402179:	48 83 ec 18          	sub    $0x18,%rsp
  40217d:	49 89 fd             	mov    %rdi,%r13
  402180:	48 89 f5             	mov    %rsi,%rbp
  402183:	49 89 d4             	mov    %rdx,%r12
  402186:	64 48 8b 04 25 28 00 	mov    %fs:0x28,%rax
  40218d:	00 00 
  40218f:	48 89 44 24 08       	mov    %rax,0x8(%rsp)
  402194:	31 c0                	xor    %eax,%eax
  402196:	bb 01 00 00 00       	mov    $0x1,%ebx
  40219b:	eb 3f                	jmp    4021dc <rio_readlineb+0x69>
  40219d:	ba 01 00 00 00       	mov    $0x1,%edx
  4021a2:	48 8d 74 24 07       	lea    0x7(%rsp),%rsi
  4021a7:	4c 89 ef             	mov    %r13,%rdi
  4021aa:	e8 39 ff ff ff       	callq  4020e8 <rio_read>
  4021af:	83 f8 01             	cmp    $0x1,%eax
  4021b2:	75 15                	jne    4021c9 <rio_readlineb+0x56>
  4021b4:	48 8d 45 01          	lea    0x1(%rbp),%rax
  4021b8:	0f b6 54 24 07       	movzbl 0x7(%rsp),%edx
  4021bd:	88 55 00             	mov    %dl,0x0(%rbp)
  4021c0:	80 7c 24 07 0a       	cmpb   $0xa,0x7(%rsp)
  4021c5:	75 0e                	jne    4021d5 <rio_readlineb+0x62>
  4021c7:	eb 1a                	jmp    4021e3 <rio_readlineb+0x70>
  4021c9:	85 c0                	test   %eax,%eax
  4021cb:	75 22                	jne    4021ef <rio_readlineb+0x7c>
  4021cd:	48 83 fb 01          	cmp    $0x1,%rbx
  4021d1:	75 13                	jne    4021e6 <rio_readlineb+0x73>
  4021d3:	eb 23                	jmp    4021f8 <rio_readlineb+0x85>
  4021d5:	48 83 c3 01          	add    $0x1,%rbx
  4021d9:	48 89 c5             	mov    %rax,%rbp
  4021dc:	4c 39 e3             	cmp    %r12,%rbx
  4021df:	72 bc                	jb     40219d <rio_readlineb+0x2a>
  4021e1:	eb 03                	jmp    4021e6 <rio_readlineb+0x73>
  4021e3:	48 89 c5             	mov    %rax,%rbp
  4021e6:	c6 45 00 00          	movb   $0x0,0x0(%rbp)
  4021ea:	48 89 d8             	mov    %rbx,%rax
  4021ed:	eb 0e                	jmp    4021fd <rio_readlineb+0x8a>
  4021ef:	48 c7 c0 ff ff ff ff 	mov    $0xffffffffffffffff,%rax
  4021f6:	eb 05                	jmp    4021fd <rio_readlineb+0x8a>
  4021f8:	b8 00 00 00 00       	mov    $0x0,%eax
  4021fd:	48 8b 4c 24 08       	mov    0x8(%rsp),%rcx
  402202:	64 48 33 0c 25 28 00 	xor    %fs:0x28,%rcx
  402209:	00 00 
  40220b:	74 05                	je     402212 <rio_readlineb+0x9f>
  40220d:	e8 de ea ff ff       	callq  400cf0 <__stack_chk_fail@plt>
  402212:	48 83 c4 18          	add    $0x18,%rsp
  402216:	5b                   	pop    %rbx
  402217:	5d                   	pop    %rbp
  402218:	41 5c                	pop    %r12
  40221a:	41 5d                	pop    %r13
  40221c:	c3                   	retq   

000000000040221d <urlencode>:
  40221d:	41 54                	push   %r12
  40221f:	55                   	push   %rbp
  402220:	53                   	push   %rbx
  402221:	48 83 ec 10          	sub    $0x10,%rsp
  402225:	48 89 fb             	mov    %rdi,%rbx
  402228:	48 89 f5             	mov    %rsi,%rbp
  40222b:	64 48 8b 04 25 28 00 	mov    %fs:0x28,%rax
  402232:	00 00 
  402234:	48 89 44 24 08       	mov    %rax,0x8(%rsp)
  402239:	31 c0                	xor    %eax,%eax
  40223b:	48 c7 c1 ff ff ff ff 	mov    $0xffffffffffffffff,%rcx
  402242:	f2 ae                	repnz scas %es:(%rdi),%al
  402244:	48 f7 d1             	not    %rcx
  402247:	8d 41 ff             	lea    -0x1(%rcx),%eax
  40224a:	e9 aa 00 00 00       	jmpq   4022f9 <urlencode+0xdc>
  40224f:	44 0f b6 03          	movzbl (%rbx),%r8d
  402253:	41 80 f8 2a          	cmp    $0x2a,%r8b
  402257:	0f 94 c2             	sete   %dl
  40225a:	41 80 f8 2d          	cmp    $0x2d,%r8b
  40225e:	0f 94 c0             	sete   %al
  402261:	08 c2                	or     %al,%dl
  402263:	75 24                	jne    402289 <urlencode+0x6c>
  402265:	41 80 f8 2e          	cmp    $0x2e,%r8b
  402269:	74 1e                	je     402289 <urlencode+0x6c>
  40226b:	41 80 f8 5f          	cmp    $0x5f,%r8b
  40226f:	74 18                	je     402289 <urlencode+0x6c>
  402271:	41 8d 40 d0          	lea    -0x30(%r8),%eax
  402275:	3c 09                	cmp    $0x9,%al
  402277:	76 10                	jbe    402289 <urlencode+0x6c>
  402279:	41 8d 40 bf          	lea    -0x41(%r8),%eax
  40227d:	3c 19                	cmp    $0x19,%al
  40227f:	76 08                	jbe    402289 <urlencode+0x6c>
  402281:	41 8d 40 9f          	lea    -0x61(%r8),%eax
  402285:	3c 19                	cmp    $0x19,%al
  402287:	77 0a                	ja     402293 <urlencode+0x76>
  402289:	44 88 45 00          	mov    %r8b,0x0(%rbp)
  40228d:	48 8d 6d 01          	lea    0x1(%rbp),%rbp
  402291:	eb 5f                	jmp    4022f2 <urlencode+0xd5>
  402293:	41 80 f8 20          	cmp    $0x20,%r8b
  402297:	75 0a                	jne    4022a3 <urlencode+0x86>
  402299:	c6 45 00 2b          	movb   $0x2b,0x0(%rbp)
  40229d:	48 8d 6d 01          	lea    0x1(%rbp),%rbp
  4022a1:	eb 4f                	jmp    4022f2 <urlencode+0xd5>
  4022a3:	41 8d 40 e0          	lea    -0x20(%r8),%eax
  4022a7:	3c 5f                	cmp    $0x5f,%al
  4022a9:	0f 96 c2             	setbe  %dl
  4022ac:	41 80 f8 09          	cmp    $0x9,%r8b
  4022b0:	0f 94 c0             	sete   %al
  4022b3:	08 c2                	or     %al,%dl
  4022b5:	74 50                	je     402307 <urlencode+0xea>
  4022b7:	45 0f b6 c0          	movzbl %r8b,%r8d
  4022bb:	b9 f8 36 40 00       	mov    $0x4036f8,%ecx
  4022c0:	ba 08 00 00 00       	mov    $0x8,%edx
  4022c5:	be 01 00 00 00       	mov    $0x1,%esi
  4022ca:	48 89 e7             	mov    %rsp,%rdi
  4022cd:	b8 00 00 00 00       	mov    $0x0,%eax
  4022d2:	e8 a9 eb ff ff       	callq  400e80 <__sprintf_chk@plt>
  4022d7:	0f b6 04 24          	movzbl (%rsp),%eax
  4022db:	88 45 00             	mov    %al,0x0(%rbp)
  4022de:	0f b6 44 24 01       	movzbl 0x1(%rsp),%eax
  4022e3:	88 45 01             	mov    %al,0x1(%rbp)
  4022e6:	0f b6 44 24 02       	movzbl 0x2(%rsp),%eax
  4022eb:	88 45 02             	mov    %al,0x2(%rbp)
  4022ee:	48 8d 6d 03          	lea    0x3(%rbp),%rbp
  4022f2:	48 83 c3 01          	add    $0x1,%rbx
  4022f6:	44 89 e0             	mov    %r12d,%eax
  4022f9:	44 8d 60 ff          	lea    -0x1(%rax),%r12d
  4022fd:	85 c0                	test   %eax,%eax
  4022ff:	0f 85 4a ff ff ff    	jne    40224f <urlencode+0x32>
  402305:	eb 05                	jmp    40230c <urlencode+0xef>
  402307:	b8 ff ff ff ff       	mov    $0xffffffff,%eax
  40230c:	48 8b 74 24 08       	mov    0x8(%rsp),%rsi
  402311:	64 48 33 34 25 28 00 	xor    %fs:0x28,%rsi
  402318:	00 00 
  40231a:	74 05                	je     402321 <urlencode+0x104>
  40231c:	e8 cf e9 ff ff       	callq  400cf0 <__stack_chk_fail@plt>
  402321:	48 83 c4 10          	add    $0x10,%rsp
  402325:	5b                   	pop    %rbx
  402326:	5d                   	pop    %rbp
  402327:	41 5c                	pop    %r12
  402329:	c3                   	retq   

000000000040232a <submitr>:
  40232a:	41 57                	push   %r15
  40232c:	41 56                	push   %r14
  40232e:	41 55                	push   %r13
  402330:	41 54                	push   %r12
  402332:	55                   	push   %rbp
  402333:	53                   	push   %rbx
  402334:	48 81 ec 58 a0 00 00 	sub    $0xa058,%rsp
  40233b:	49 89 fc             	mov    %rdi,%r12
  40233e:	89 74 24 04          	mov    %esi,0x4(%rsp)
  402342:	49 89 d7             	mov    %rdx,%r15
  402345:	49 89 ce             	mov    %rcx,%r14
  402348:	4c 89 44 24 08       	mov    %r8,0x8(%rsp)
  40234d:	4d 89 cd             	mov    %r9,%r13
  402350:	48 8b 9c 24 90 a0 00 	mov    0xa090(%rsp),%rbx
  402357:	00 
  402358:	64 48 8b 04 25 28 00 	mov    %fs:0x28,%rax
  40235f:	00 00 
  402361:	48 89 84 24 48 a0 00 	mov    %rax,0xa048(%rsp)
  402368:	00 
  402369:	31 c0                	xor    %eax,%eax
  40236b:	c7 44 24 1c 00 00 00 	movl   $0x0,0x1c(%rsp)
  402372:	00 
  402373:	ba 00 00 00 00       	mov    $0x0,%edx
  402378:	be 01 00 00 00       	mov    $0x1,%esi
  40237d:	bf 02 00 00 00       	mov    $0x2,%edi
  402382:	e8 09 eb ff ff       	callq  400e90 <socket@plt>
  402387:	85 c0                	test   %eax,%eax
  402389:	79 4e                	jns    4023d9 <submitr+0xaf>
  40238b:	48 b8 45 72 72 6f 72 	movabs $0x43203a726f727245,%rax
  402392:	3a 20 43 
  402395:	48 89 03             	mov    %rax,(%rbx)
  402398:	48 b8 6c 69 65 6e 74 	movabs $0x6e7520746e65696c,%rax
  40239f:	20 75 6e 
  4023a2:	48 89 43 08          	mov    %rax,0x8(%rbx)
  4023a6:	48 b8 61 62 6c 65 20 	movabs $0x206f7420656c6261,%rax
  4023ad:	74 6f 20 
  4023b0:	48 89 43 10          	mov    %rax,0x10(%rbx)
  4023b4:	48 b8 63 72 65 61 74 	movabs $0x7320657461657263,%rax
  4023bb:	65 20 73 
  4023be:	48 89 43 18          	mov    %rax,0x18(%rbx)
  4023c2:	c7 43 20 6f 63 6b 65 	movl   $0x656b636f,0x20(%rbx)
  4023c9:	66 c7 43 24 74 00    	movw   $0x74,0x24(%rbx)
  4023cf:	b8 ff ff ff ff       	mov    $0xffffffff,%eax
  4023d4:	e9 97 06 00 00       	jmpq   402a70 <submitr+0x746>
  4023d9:	89 c5                	mov    %eax,%ebp
  4023db:	4c 89 e7             	mov    %r12,%rdi
  4023de:	e8 8d e9 ff ff       	callq  400d70 <gethostbyname@plt>
  4023e3:	48 85 c0             	test   %rax,%rax
  4023e6:	75 67                	jne    40244f <submitr+0x125>
  4023e8:	48 b8 45 72 72 6f 72 	movabs $0x44203a726f727245,%rax
  4023ef:	3a 20 44 
  4023f2:	48 89 03             	mov    %rax,(%rbx)
  4023f5:	48 b8 4e 53 20 69 73 	movabs $0x6e7520736920534e,%rax
  4023fc:	20 75 6e 
  4023ff:	48 89 43 08          	mov    %rax,0x8(%rbx)
  402403:	48 b8 61 62 6c 65 20 	movabs $0x206f7420656c6261,%rax
  40240a:	74 6f 20 
  40240d:	48 89 43 10          	mov    %rax,0x10(%rbx)
  402411:	48 b8 72 65 73 6f 6c 	movabs $0x2065766c6f736572,%rax
  402418:	76 65 20 
  40241b:	48 89 43 18          	mov    %rax,0x18(%rbx)
  40241f:	48 b8 73 65 72 76 65 	movabs $0x6120726576726573,%rax
  402426:	72 20 61 
  402429:	48 89 43 20          	mov    %rax,0x20(%rbx)
  40242d:	c7 43 28 64 64 72 65 	movl   $0x65726464,0x28(%rbx)
  402434:	66 c7 43 2c 73 73    	movw   $0x7373,0x2c(%rbx)
  40243a:	c6 43 2e 00          	movb   $0x0,0x2e(%rbx)
  40243e:	89 ef                	mov    %ebp,%edi
  402440:	e8 eb e8 ff ff       	callq  400d30 <close@plt>
  402445:	b8 ff ff ff ff       	mov    $0xffffffff,%eax
  40244a:	e9 21 06 00 00       	jmpq   402a70 <submitr+0x746>
  40244f:	48 c7 44 24 20 00 00 	movq   $0x0,0x20(%rsp)
  402456:	00 00 
  402458:	48 c7 44 24 28 00 00 	movq   $0x0,0x28(%rsp)
  40245f:	00 00 
  402461:	66 c7 44 24 20 02 00 	movw   $0x2,0x20(%rsp)
  402468:	48 63 50 14          	movslq 0x14(%rax),%rdx
  40246c:	48 8b 40 18          	mov    0x18(%rax),%rax
  402470:	48 8b 30             	mov    (%rax),%rsi
  402473:	48 8d 7c 24 24       	lea    0x24(%rsp),%rdi
  402478:	b9 0c 00 00 00       	mov    $0xc,%ecx
  40247d:	e8 fe e8 ff ff       	callq  400d80 <__memmove_chk@plt>
  402482:	0f b7 44 24 04       	movzwl 0x4(%rsp),%eax
  402487:	66 c1 c8 08          	ror    $0x8,%ax
  40248b:	66 89 44 24 22       	mov    %ax,0x22(%rsp)
  402490:	ba 10 00 00 00       	mov    $0x10,%edx
  402495:	48 8d 74 24 20       	lea    0x20(%rsp),%rsi
  40249a:	89 ef                	mov    %ebp,%edi
  40249c:	e8 bf e9 ff ff       	callq  400e60 <connect@plt>
  4024a1:	85 c0                	test   %eax,%eax
  4024a3:	79 59                	jns    4024fe <submitr+0x1d4>
  4024a5:	48 b8 45 72 72 6f 72 	movabs $0x55203a726f727245,%rax
  4024ac:	3a 20 55 
  4024af:	48 89 03             	mov    %rax,(%rbx)
  4024b2:	48 b8 6e 61 62 6c 65 	movabs $0x6f7420656c62616e,%rax
  4024b9:	20 74 6f 
  4024bc:	48 89 43 08          	mov    %rax,0x8(%rbx)
  4024c0:	48 b8 20 63 6f 6e 6e 	movabs $0x7463656e6e6f6320,%rax
  4024c7:	65 63 74 
  4024ca:	48 89 43 10          	mov    %rax,0x10(%rbx)
  4024ce:	48 b8 20 74 6f 20 74 	movabs $0x20656874206f7420,%rax
  4024d5:	68 65 20 
  4024d8:	48 89 43 18          	mov    %rax,0x18(%rbx)
  4024dc:	c7 43 20 73 65 72 76 	movl   $0x76726573,0x20(%rbx)
  4024e3:	66 c7 43 24 65 72    	movw   $0x7265,0x24(%rbx)
  4024e9:	c6 43 26 00          	movb   $0x0,0x26(%rbx)
  4024ed:	89 ef                	mov    %ebp,%edi
  4024ef:	e8 3c e8 ff ff       	callq  400d30 <close@plt>
  4024f4:	b8 ff ff ff ff       	mov    $0xffffffff,%eax
  4024f9:	e9 72 05 00 00       	jmpq   402a70 <submitr+0x746>
  4024fe:	48 c7 c6 ff ff ff ff 	mov    $0xffffffffffffffff,%rsi
  402505:	b8 00 00 00 00       	mov    $0x0,%eax
  40250a:	48 89 f1             	mov    %rsi,%rcx
  40250d:	4c 89 ef             	mov    %r13,%rdi
  402510:	f2 ae                	repnz scas %es:(%rdi),%al
  402512:	48 f7 d1             	not    %rcx
  402515:	48 89 ca             	mov    %rcx,%rdx
  402518:	48 89 f1             	mov    %rsi,%rcx
  40251b:	4c 89 ff             	mov    %r15,%rdi
  40251e:	f2 ae                	repnz scas %es:(%rdi),%al
  402520:	48 f7 d1             	not    %rcx
  402523:	49 89 c8             	mov    %rcx,%r8
  402526:	48 89 f1             	mov    %rsi,%rcx
  402529:	4c 89 f7             	mov    %r14,%rdi
  40252c:	f2 ae                	repnz scas %es:(%rdi),%al
  40252e:	48 f7 d1             	not    %rcx
  402531:	4d 8d 44 08 fe       	lea    -0x2(%r8,%rcx,1),%r8
  402536:	48 89 f1             	mov    %rsi,%rcx
  402539:	48 8b 7c 24 08       	mov    0x8(%rsp),%rdi
  40253e:	f2 ae                	repnz scas %es:(%rdi),%al
  402540:	48 89 c8             	mov    %rcx,%rax
  402543:	48 f7 d0             	not    %rax
  402546:	49 8d 4c 00 ff       	lea    -0x1(%r8,%rax,1),%rcx
  40254b:	48 8d 44 52 fd       	lea    -0x3(%rdx,%rdx,2),%rax
  402550:	48 8d 84 01 80 00 00 	lea    0x80(%rcx,%rax,1),%rax
  402557:	00 
  402558:	48 3d 00 20 00 00    	cmp    $0x2000,%rax
  40255e:	76 72                	jbe    4025d2 <submitr+0x2a8>
  402560:	48 b8 45 72 72 6f 72 	movabs $0x52203a726f727245,%rax
  402567:	3a 20 52 
  40256a:	48 89 03             	mov    %rax,(%rbx)
  40256d:	48 b8 65 73 75 6c 74 	movabs $0x747320746c757365,%rax
  402574:	20 73 74 
  402577:	48 89 43 08          	mov    %rax,0x8(%rbx)
  40257b:	48 b8 72 69 6e 67 20 	movabs $0x6f6f7420676e6972,%rax
  402582:	74 6f 6f 
  402585:	48 89 43 10          	mov    %rax,0x10(%rbx)
  402589:	48 b8 20 6c 61 72 67 	movabs $0x202e656772616c20,%rax
  402590:	65 2e 20 
  402593:	48 89 43 18          	mov    %rax,0x18(%rbx)
  402597:	48 b8 49 6e 63 72 65 	movabs $0x6573616572636e49,%rax
  40259e:	61 73 65 
  4025a1:	48 89 43 20          	mov    %rax,0x20(%rbx)
  4025a5:	48 b8 20 53 55 42 4d 	movabs $0x5254494d42555320,%rax
  4025ac:	49 54 52 
  4025af:	48 89 43 28          	mov    %rax,0x28(%rbx)
  4025b3:	48 b8 5f 4d 41 58 42 	movabs $0x46554258414d5f,%rax
  4025ba:	55 46 00 
  4025bd:	48 89 43 30          	mov    %rax,0x30(%rbx)
  4025c1:	89 ef                	mov    %ebp,%edi
  4025c3:	e8 68 e7 ff ff       	callq  400d30 <close@plt>
  4025c8:	b8 ff ff ff ff       	mov    $0xffffffff,%eax
  4025cd:	e9 9e 04 00 00       	jmpq   402a70 <submitr+0x746>
  4025d2:	48 8d b4 24 40 40 00 	lea    0x4040(%rsp),%rsi
  4025d9:	00 
  4025da:	b9 00 04 00 00       	mov    $0x400,%ecx
  4025df:	b8 00 00 00 00       	mov    $0x0,%eax
  4025e4:	48 89 f7             	mov    %rsi,%rdi
  4025e7:	f3 48 ab             	rep stos %rax,%es:(%rdi)
  4025ea:	4c 89 ef             	mov    %r13,%rdi
  4025ed:	e8 2b fc ff ff       	callq  40221d <urlencode>
  4025f2:	85 c0                	test   %eax,%eax
  4025f4:	0f 89 8a 00 00 00    	jns    402684 <submitr+0x35a>
  4025fa:	48 b8 45 72 72 6f 72 	movabs $0x52203a726f727245,%rax
  402601:	3a 20 52 
  402604:	48 89 03             	mov    %rax,(%rbx)
  402607:	48 b8 65 73 75 6c 74 	movabs $0x747320746c757365,%rax
  40260e:	20 73 74 
  402611:	48 89 43 08          	mov    %rax,0x8(%rbx)
  402615:	48 b8 72 69 6e 67 20 	movabs $0x6e6f6320676e6972,%rax
  40261c:	63 6f 6e 
  40261f:	48 89 43 10          	mov    %rax,0x10(%rbx)
  402623:	48 b8 74 61 69 6e 73 	movabs $0x6e6120736e696174,%rax
  40262a:	20 61 6e 
  40262d:	48 89 43 18          	mov    %rax,0x18(%rbx)
  402631:	48 b8 20 69 6c 6c 65 	movabs $0x6c6167656c6c6920,%rax
  402638:	67 61 6c 
  40263b:	48 89 43 20          	mov    %rax,0x20(%rbx)
  40263f:	48 b8 20 6f 72 20 75 	movabs $0x72706e7520726f20,%rax
  402646:	6e 70 72 
  402649:	48 89 43 28          	mov    %rax,0x28(%rbx)
  40264d:	48 b8 69 6e 74 61 62 	movabs $0x20656c6261746e69,%rax
  402654:	6c 65 20 
  402657:	48 89 43 30          	mov    %rax,0x30(%rbx)
  40265b:	48 b8 63 68 61 72 61 	movabs $0x6574636172616863,%rax
  402662:	63 74 65 
  402665:	48 89 43 38          	mov    %rax,0x38(%rbx)
  402669:	66 c7 43 40 72 2e    	movw   $0x2e72,0x40(%rbx)
  40266f:	c6 43 42 00          	movb   $0x0,0x42(%rbx)
  402673:	89 ef                	mov    %ebp,%edi
  402675:	e8 b6 e6 ff ff       	callq  400d30 <close@plt>
  40267a:	b8 ff ff ff ff       	mov    $0xffffffff,%eax
  40267f:	e9 ec 03 00 00       	jmpq   402a70 <submitr+0x746>
  402684:	4c 8d ac 24 40 20 00 	lea    0x2040(%rsp),%r13
  40268b:	00 
  40268c:	41 54                	push   %r12
  40268e:	48 8d 84 24 48 40 00 	lea    0x4048(%rsp),%rax
  402695:	00 
  402696:	50                   	push   %rax
  402697:	4d 89 f9             	mov    %r15,%r9
  40269a:	4d 89 f0             	mov    %r14,%r8
  40269d:	b9 88 36 40 00       	mov    $0x403688,%ecx
  4026a2:	ba 00 20 00 00       	mov    $0x2000,%edx
  4026a7:	be 01 00 00 00       	mov    $0x1,%esi
  4026ac:	4c 89 ef             	mov    %r13,%rdi
  4026af:	b8 00 00 00 00       	mov    $0x0,%eax
  4026b4:	e8 c7 e7 ff ff       	callq  400e80 <__sprintf_chk@plt>
  4026b9:	b8 00 00 00 00       	mov    $0x0,%eax
  4026be:	48 c7 c1 ff ff ff ff 	mov    $0xffffffffffffffff,%rcx
  4026c5:	4c 89 ef             	mov    %r13,%rdi
  4026c8:	f2 ae                	repnz scas %es:(%rdi),%al
  4026ca:	48 f7 d1             	not    %rcx
  4026cd:	48 8d 51 ff          	lea    -0x1(%rcx),%rdx
  4026d1:	4c 89 ee             	mov    %r13,%rsi
  4026d4:	89 ef                	mov    %ebp,%edi
  4026d6:	e8 b1 f9 ff ff       	callq  40208c <rio_writen>
  4026db:	48 83 c4 10          	add    $0x10,%rsp
  4026df:	48 85 c0             	test   %rax,%rax
  4026e2:	79 6e                	jns    402752 <submitr+0x428>
  4026e4:	48 b8 45 72 72 6f 72 	movabs $0x43203a726f727245,%rax
  4026eb:	3a 20 43 
  4026ee:	48 89 03             	mov    %rax,(%rbx)
  4026f1:	48 b8 6c 69 65 6e 74 	movabs $0x6e7520746e65696c,%rax
  4026f8:	20 75 6e 
  4026fb:	48 89 43 08          	mov    %rax,0x8(%rbx)
  4026ff:	48 b8 61 62 6c 65 20 	movabs $0x206f7420656c6261,%rax
  402706:	74 6f 20 
  402709:	48 89 43 10          	mov    %rax,0x10(%rbx)
  40270d:	48 b8 77 72 69 74 65 	movabs $0x6f74206574697277,%rax
  402714:	20 74 6f 
  402717:	48 89 43 18          	mov    %rax,0x18(%rbx)
  40271b:	48 b8 20 74 68 65 20 	movabs $0x7365722065687420,%rax
  402722:	72 65 73 
  402725:	48 89 43 20          	mov    %rax,0x20(%rbx)
  402729:	48 b8 75 6c 74 20 73 	movabs $0x7672657320746c75,%rax
  402730:	65 72 76 
  402733:	48 89 43 28          	mov    %rax,0x28(%rbx)
  402737:	66 c7 43 30 65 72    	movw   $0x7265,0x30(%rbx)
  40273d:	c6 43 32 00          	movb   $0x0,0x32(%rbx)
  402741:	89 ef                	mov    %ebp,%edi
  402743:	e8 e8 e5 ff ff       	callq  400d30 <close@plt>
  402748:	b8 ff ff ff ff       	mov    $0xffffffff,%eax
  40274d:	e9 1e 03 00 00       	jmpq   402a70 <submitr+0x746>
  402752:	89 ee                	mov    %ebp,%esi
  402754:	48 8d 7c 24 30       	lea    0x30(%rsp),%rdi
  402759:	e8 ee f8 ff ff       	callq  40204c <rio_readinitb>
  40275e:	ba 00 20 00 00       	mov    $0x2000,%edx
  402763:	48 8d b4 24 40 20 00 	lea    0x2040(%rsp),%rsi
  40276a:	00 
  40276b:	48 8d 7c 24 30       	lea    0x30(%rsp),%rdi
  402770:	e8 fe f9 ff ff       	callq  402173 <rio_readlineb>
  402775:	48 85 c0             	test   %rax,%rax
  402778:	7f 7d                	jg     4027f7 <submitr+0x4cd>
  40277a:	48 b8 45 72 72 6f 72 	movabs $0x43203a726f727245,%rax
  402781:	3a 20 43 
  402784:	48 89 03             	mov    %rax,(%rbx)
  402787:	48 b8 6c 69 65 6e 74 	movabs $0x6e7520746e65696c,%rax
  40278e:	20 75 6e 
  402791:	48 89 43 08          	mov    %rax,0x8(%rbx)
  402795:	48 b8 61 62 6c 65 20 	movabs $0x206f7420656c6261,%rax
  40279c:	74 6f 20 
  40279f:	48 89 43 10          	mov    %rax,0x10(%rbx)
  4027a3:	48 b8 72 65 61 64 20 	movabs $0x7269662064616572,%rax
  4027aa:	66 69 72 
  4027ad:	48 89 43 18          	mov    %rax,0x18(%rbx)
  4027b1:	48 b8 73 74 20 68 65 	movabs $0x6564616568207473,%rax
  4027b8:	61 64 65 
  4027bb:	48 89 43 20          	mov    %rax,0x20(%rbx)
  4027bf:	48 b8 72 20 66 72 6f 	movabs $0x72206d6f72662072,%rax
  4027c6:	6d 20 72 
  4027c9:	48 89 43 28          	mov    %rax,0x28(%rbx)
  4027cd:	48 b8 65 73 75 6c 74 	movabs $0x657320746c757365,%rax
  4027d4:	20 73 65 
  4027d7:	48 89 43 30          	mov    %rax,0x30(%rbx)
  4027db:	c7 43 38 72 76 65 72 	movl   $0x72657672,0x38(%rbx)
  4027e2:	c6 43 3c 00          	movb   $0x0,0x3c(%rbx)
  4027e6:	89 ef                	mov    %ebp,%edi
  4027e8:	e8 43 e5 ff ff       	callq  400d30 <close@plt>
  4027ed:	b8 ff ff ff ff       	mov    $0xffffffff,%eax
  4027f2:	e9 79 02 00 00       	jmpq   402a70 <submitr+0x746>
  4027f7:	4c 8d 84 24 40 80 00 	lea    0x8040(%rsp),%r8
  4027fe:	00 
  4027ff:	48 8d 4c 24 1c       	lea    0x1c(%rsp),%rcx
  402804:	48 8d 94 24 40 60 00 	lea    0x6040(%rsp),%rdx
  40280b:	00 
  40280c:	be ff 36 40 00       	mov    $0x4036ff,%esi
  402811:	48 8d bc 24 40 20 00 	lea    0x2040(%rsp),%rdi
  402818:	00 
  402819:	b8 00 00 00 00       	mov    $0x0,%eax
  40281e:	e8 bd e5 ff ff       	callq  400de0 <__isoc99_sscanf@plt>
  402823:	e9 95 00 00 00       	jmpq   4028bd <submitr+0x593>
  402828:	ba 00 20 00 00       	mov    $0x2000,%edx
  40282d:	48 8d b4 24 40 20 00 	lea    0x2040(%rsp),%rsi
  402834:	00 
  402835:	48 8d 7c 24 30       	lea    0x30(%rsp),%rdi
  40283a:	e8 34 f9 ff ff       	callq  402173 <rio_readlineb>
  40283f:	48 85 c0             	test   %rax,%rax
  402842:	7f 79                	jg     4028bd <submitr+0x593>
  402844:	48 b8 45 72 72 6f 72 	movabs $0x43203a726f727245,%rax
  40284b:	3a 20 43 
  40284e:	48 89 03             	mov    %rax,(%rbx)
  402851:	48 b8 6c 69 65 6e 74 	movabs $0x6e7520746e65696c,%rax
  402858:	20 75 6e 
  40285b:	48 89 43 08          	mov    %rax,0x8(%rbx)
  40285f:	48 b8 61 62 6c 65 20 	movabs $0x206f7420656c6261,%rax
  402866:	74 6f 20 
  402869:	48 89 43 10          	mov    %rax,0x10(%rbx)
  40286d:	48 b8 72 65 61 64 20 	movabs $0x6165682064616572,%rax
  402874:	68 65 61 
  402877:	48 89 43 18          	mov    %rax,0x18(%rbx)
  40287b:	48 b8 64 65 72 73 20 	movabs $0x6f72662073726564,%rax
  402882:	66 72 6f 
  402885:	48 89 43 20          	mov    %rax,0x20(%rbx)
  402889:	48 b8 6d 20 74 68 65 	movabs $0x657220656874206d,%rax
  402890:	20 72 65 
  402893:	48 89 43 28          	mov    %rax,0x28(%rbx)
  402897:	48 b8 73 75 6c 74 20 	movabs $0x72657320746c7573,%rax
  40289e:	73 65 72 
  4028a1:	48 89 43 30          	mov    %rax,0x30(%rbx)
  4028a5:	c7 43 38 76 65 72 00 	movl   $0x726576,0x38(%rbx)
  4028ac:	89 ef                	mov    %ebp,%edi
  4028ae:	e8 7d e4 ff ff       	callq  400d30 <close@plt>
  4028b3:	b8 ff ff ff ff       	mov    $0xffffffff,%eax
  4028b8:	e9 b3 01 00 00       	jmpq   402a70 <submitr+0x746>
  4028bd:	0f b6 94 24 40 20 00 	movzbl 0x2040(%rsp),%edx
  4028c4:	00 
  4028c5:	b8 0d 00 00 00       	mov    $0xd,%eax
  4028ca:	29 d0                	sub    %edx,%eax
  4028cc:	75 1b                	jne    4028e9 <submitr+0x5bf>
  4028ce:	0f b6 94 24 41 20 00 	movzbl 0x2041(%rsp),%edx
  4028d5:	00 
  4028d6:	b8 0a 00 00 00       	mov    $0xa,%eax
  4028db:	29 d0                	sub    %edx,%eax
  4028dd:	75 0a                	jne    4028e9 <submitr+0x5bf>
  4028df:	0f b6 84 24 42 20 00 	movzbl 0x2042(%rsp),%eax
  4028e6:	00 
  4028e7:	f7 d8                	neg    %eax
  4028e9:	85 c0                	test   %eax,%eax
  4028eb:	0f 85 37 ff ff ff    	jne    402828 <submitr+0x4fe>
  4028f1:	ba 00 20 00 00       	mov    $0x2000,%edx
  4028f6:	48 8d b4 24 40 20 00 	lea    0x2040(%rsp),%rsi
  4028fd:	00 
  4028fe:	48 8d 7c 24 30       	lea    0x30(%rsp),%rdi
  402903:	e8 6b f8 ff ff       	callq  402173 <rio_readlineb>
  402908:	48 85 c0             	test   %rax,%rax
  40290b:	0f 8f 83 00 00 00    	jg     402994 <submitr+0x66a>
  402911:	48 b8 45 72 72 6f 72 	movabs $0x43203a726f727245,%rax
  402918:	3a 20 43 
  40291b:	48 89 03             	mov    %rax,(%rbx)
  40291e:	48 b8 6c 69 65 6e 74 	movabs $0x6e7520746e65696c,%rax
  402925:	20 75 6e 
  402928:	48 89 43 08          	mov    %rax,0x8(%rbx)
  40292c:	48 b8 61 62 6c 65 20 	movabs $0x206f7420656c6261,%rax
  402933:	74 6f 20 
  402936:	48 89 43 10          	mov    %rax,0x10(%rbx)
  40293a:	48 b8 72 65 61 64 20 	movabs $0x6174732064616572,%rax
  402941:	73 74 61 
  402944:	48 89 43 18          	mov    %rax,0x18(%rbx)
  402948:	48 b8 74 75 73 20 6d 	movabs $0x7373656d20737574,%rax
  40294f:	65 73 73 
  402952:	48 89 43 20          	mov    %rax,0x20(%rbx)
  402956:	48 b8 61 67 65 20 66 	movabs $0x6d6f726620656761,%rax
  40295d:	72 6f 6d 
  402960:	48 89 43 28          	mov    %rax,0x28(%rbx)
  402964:	48 b8 20 72 65 73 75 	movabs $0x20746c7573657220,%rax
  40296b:	6c 74 20 
  40296e:	48 89 43 30          	mov    %rax,0x30(%rbx)
  402972:	c7 43 38 73 65 72 76 	movl   $0x76726573,0x38(%rbx)
  402979:	66 c7 43 3c 65 72    	movw   $0x7265,0x3c(%rbx)
  40297f:	c6 43 3e 00          	movb   $0x0,0x3e(%rbx)
  402983:	89 ef                	mov    %ebp,%edi
  402985:	e8 a6 e3 ff ff       	callq  400d30 <close@plt>
  40298a:	b8 ff ff ff ff       	mov    $0xffffffff,%eax
  40298f:	e9 dc 00 00 00       	jmpq   402a70 <submitr+0x746>
  402994:	44 8b 44 24 1c       	mov    0x1c(%rsp),%r8d
  402999:	41 81 f8 c8 00 00 00 	cmp    $0xc8,%r8d
  4029a0:	74 37                	je     4029d9 <submitr+0x6af>
  4029a2:	4c 8d 8c 24 40 80 00 	lea    0x8040(%rsp),%r9
  4029a9:	00 
  4029aa:	b9 c8 36 40 00       	mov    $0x4036c8,%ecx
  4029af:	48 c7 c2 ff ff ff ff 	mov    $0xffffffffffffffff,%rdx
  4029b6:	be 01 00 00 00       	mov    $0x1,%esi
  4029bb:	48 89 df             	mov    %rbx,%rdi
  4029be:	b8 00 00 00 00       	mov    $0x0,%eax
  4029c3:	e8 b8 e4 ff ff       	callq  400e80 <__sprintf_chk@plt>
  4029c8:	89 ef                	mov    %ebp,%edi
  4029ca:	e8 61 e3 ff ff       	callq  400d30 <close@plt>
  4029cf:	b8 ff ff ff ff       	mov    $0xffffffff,%eax
  4029d4:	e9 97 00 00 00       	jmpq   402a70 <submitr+0x746>
  4029d9:	48 8d b4 24 40 20 00 	lea    0x2040(%rsp),%rsi
  4029e0:	00 
  4029e1:	48 89 df             	mov    %rbx,%rdi
  4029e4:	e8 d7 e2 ff ff       	callq  400cc0 <strcpy@plt>
  4029e9:	89 ef                	mov    %ebp,%edi
  4029eb:	e8 40 e3 ff ff       	callq  400d30 <close@plt>
  4029f0:	0f b6 03             	movzbl (%rbx),%eax
  4029f3:	ba 4f 00 00 00       	mov    $0x4f,%edx
  4029f8:	29 c2                	sub    %eax,%edx
  4029fa:	75 22                	jne    402a1e <submitr+0x6f4>
  4029fc:	0f b6 4b 01          	movzbl 0x1(%rbx),%ecx
  402a00:	b8 4b 00 00 00       	mov    $0x4b,%eax
  402a05:	29 c8                	sub    %ecx,%eax
  402a07:	75 17                	jne    402a20 <submitr+0x6f6>
  402a09:	0f b6 4b 02          	movzbl 0x2(%rbx),%ecx
  402a0d:	b8 0a 00 00 00       	mov    $0xa,%eax
  402a12:	29 c8                	sub    %ecx,%eax
  402a14:	75 0a                	jne    402a20 <submitr+0x6f6>
  402a16:	0f b6 43 03          	movzbl 0x3(%rbx),%eax
  402a1a:	f7 d8                	neg    %eax
  402a1c:	eb 02                	jmp    402a20 <submitr+0x6f6>
  402a1e:	89 d0                	mov    %edx,%eax
  402a20:	85 c0                	test   %eax,%eax
  402a22:	74 40                	je     402a64 <submitr+0x73a>
  402a24:	bf 10 37 40 00       	mov    $0x403710,%edi
  402a29:	b9 05 00 00 00       	mov    $0x5,%ecx
  402a2e:	48 89 de             	mov    %rbx,%rsi
  402a31:	f3 a6                	repz cmpsb %es:(%rdi),%ds:(%rsi)
  402a33:	0f 97 c0             	seta   %al
  402a36:	0f 92 c1             	setb   %cl
  402a39:	29 c8                	sub    %ecx,%eax
  402a3b:	0f be c0             	movsbl %al,%eax
  402a3e:	85 c0                	test   %eax,%eax
  402a40:	74 2e                	je     402a70 <submitr+0x746>
  402a42:	85 d2                	test   %edx,%edx
  402a44:	75 13                	jne    402a59 <submitr+0x72f>
  402a46:	0f b6 43 01          	movzbl 0x1(%rbx),%eax
  402a4a:	ba 4b 00 00 00       	mov    $0x4b,%edx
  402a4f:	29 c2                	sub    %eax,%edx
  402a51:	75 06                	jne    402a59 <submitr+0x72f>
  402a53:	0f b6 53 02          	movzbl 0x2(%rbx),%edx
  402a57:	f7 da                	neg    %edx
  402a59:	85 d2                	test   %edx,%edx
  402a5b:	75 0e                	jne    402a6b <submitr+0x741>
  402a5d:	b8 00 00 00 00       	mov    $0x0,%eax
  402a62:	eb 0c                	jmp    402a70 <submitr+0x746>
  402a64:	b8 00 00 00 00       	mov    $0x0,%eax
  402a69:	eb 05                	jmp    402a70 <submitr+0x746>
  402a6b:	b8 ff ff ff ff       	mov    $0xffffffff,%eax
  402a70:	48 8b 9c 24 48 a0 00 	mov    0xa048(%rsp),%rbx
  402a77:	00 
  402a78:	64 48 33 1c 25 28 00 	xor    %fs:0x28,%rbx
  402a7f:	00 00 
  402a81:	74 05                	je     402a88 <submitr+0x75e>
  402a83:	e8 68 e2 ff ff       	callq  400cf0 <__stack_chk_fail@plt>
  402a88:	48 81 c4 58 a0 00 00 	add    $0xa058,%rsp
  402a8f:	5b                   	pop    %rbx
  402a90:	5d                   	pop    %rbp
  402a91:	41 5c                	pop    %r12
  402a93:	41 5d                	pop    %r13
  402a95:	41 5e                	pop    %r14
  402a97:	41 5f                	pop    %r15
  402a99:	c3                   	retq   

0000000000402a9a <init_timeout>:
  402a9a:	85 ff                	test   %edi,%edi
  402a9c:	74 23                	je     402ac1 <init_timeout+0x27>
  402a9e:	53                   	push   %rbx
  402a9f:	89 fb                	mov    %edi,%ebx
  402aa1:	85 ff                	test   %edi,%edi
  402aa3:	79 05                	jns    402aaa <init_timeout+0x10>
  402aa5:	bb 00 00 00 00       	mov    $0x0,%ebx
  402aaa:	be 5e 20 40 00       	mov    $0x40205e,%esi
  402aaf:	bf 0e 00 00 00       	mov    $0xe,%edi
  402ab4:	e8 a7 e2 ff ff       	callq  400d60 <signal@plt>
  402ab9:	89 df                	mov    %ebx,%edi
  402abb:	e8 60 e2 ff ff       	callq  400d20 <alarm@plt>
  402ac0:	5b                   	pop    %rbx
  402ac1:	f3 c3                	repz retq 

0000000000402ac3 <init_driver>:
  402ac3:	55                   	push   %rbp
  402ac4:	53                   	push   %rbx
  402ac5:	48 83 ec 28          	sub    $0x28,%rsp
  402ac9:	48 89 fd             	mov    %rdi,%rbp
  402acc:	64 48 8b 04 25 28 00 	mov    %fs:0x28,%rax
  402ad3:	00 00 
  402ad5:	48 89 44 24 18       	mov    %rax,0x18(%rsp)
  402ada:	31 c0                	xor    %eax,%eax
  402adc:	be 01 00 00 00       	mov    $0x1,%esi
  402ae1:	bf 0d 00 00 00       	mov    $0xd,%edi
  402ae6:	e8 75 e2 ff ff       	callq  400d60 <signal@plt>
  402aeb:	be 01 00 00 00       	mov    $0x1,%esi
  402af0:	bf 1d 00 00 00       	mov    $0x1d,%edi
  402af5:	e8 66 e2 ff ff       	callq  400d60 <signal@plt>
  402afa:	be 01 00 00 00       	mov    $0x1,%esi
  402aff:	bf 1d 00 00 00       	mov    $0x1d,%edi
  402b04:	e8 57 e2 ff ff       	callq  400d60 <signal@plt>
  402b09:	ba 00 00 00 00       	mov    $0x0,%edx
  402b0e:	be 01 00 00 00       	mov    $0x1,%esi
  402b13:	bf 02 00 00 00       	mov    $0x2,%edi
  402b18:	e8 73 e3 ff ff       	callq  400e90 <socket@plt>
  402b1d:	85 c0                	test   %eax,%eax
  402b1f:	79 4f                	jns    402b70 <init_driver+0xad>
  402b21:	48 b8 45 72 72 6f 72 	movabs $0x43203a726f727245,%rax
  402b28:	3a 20 43 
  402b2b:	48 89 45 00          	mov    %rax,0x0(%rbp)
  402b2f:	48 b8 6c 69 65 6e 74 	movabs $0x6e7520746e65696c,%rax
  402b36:	20 75 6e 
  402b39:	48 89 45 08          	mov    %rax,0x8(%rbp)
  402b3d:	48 b8 61 62 6c 65 20 	movabs $0x206f7420656c6261,%rax
  402b44:	74 6f 20 
  402b47:	48 89 45 10          	mov    %rax,0x10(%rbp)
  402b4b:	48 b8 63 72 65 61 74 	movabs $0x7320657461657263,%rax
  402b52:	65 20 73 
  402b55:	48 89 45 18          	mov    %rax,0x18(%rbp)
  402b59:	c7 45 20 6f 63 6b 65 	movl   $0x656b636f,0x20(%rbp)
  402b60:	66 c7 45 24 74 00    	movw   $0x74,0x24(%rbp)
  402b66:	b8 ff ff ff ff       	mov    $0xffffffff,%eax
  402b6b:	e9 2a 01 00 00       	jmpq   402c9a <init_driver+0x1d7>
  402b70:	89 c3                	mov    %eax,%ebx
  402b72:	bf 15 37 40 00       	mov    $0x403715,%edi
  402b77:	e8 f4 e1 ff ff       	callq  400d70 <gethostbyname@plt>
  402b7c:	48 85 c0             	test   %rax,%rax
  402b7f:	75 68                	jne    402be9 <init_driver+0x126>
  402b81:	48 b8 45 72 72 6f 72 	movabs $0x44203a726f727245,%rax
  402b88:	3a 20 44 
  402b8b:	48 89 45 00          	mov    %rax,0x0(%rbp)
  402b8f:	48 b8 4e 53 20 69 73 	movabs $0x6e7520736920534e,%rax
  402b96:	20 75 6e 
  402b99:	48 89 45 08          	mov    %rax,0x8(%rbp)
  402b9d:	48 b8 61 62 6c 65 20 	movabs $0x206f7420656c6261,%rax
  402ba4:	74 6f 20 
  402ba7:	48 89 45 10          	mov    %rax,0x10(%rbp)
  402bab:	48 b8 72 65 73 6f 6c 	movabs $0x2065766c6f736572,%rax
  402bb2:	76 65 20 
  402bb5:	48 89 45 18          	mov    %rax,0x18(%rbp)
  402bb9:	48 b8 73 65 72 76 65 	movabs $0x6120726576726573,%rax
  402bc0:	72 20 61 
  402bc3:	48 89 45 20          	mov    %rax,0x20(%rbp)
  402bc7:	c7 45 28 64 64 72 65 	movl   $0x65726464,0x28(%rbp)
  402bce:	66 c7 45 2c 73 73    	movw   $0x7373,0x2c(%rbp)
  402bd4:	c6 45 2e 00          	movb   $0x0,0x2e(%rbp)
  402bd8:	89 df                	mov    %ebx,%edi
  402bda:	e8 51 e1 ff ff       	callq  400d30 <close@plt>
  402bdf:	b8 ff ff ff ff       	mov    $0xffffffff,%eax
  402be4:	e9 b1 00 00 00       	jmpq   402c9a <init_driver+0x1d7>
  402be9:	48 c7 04 24 00 00 00 	movq   $0x0,(%rsp)
  402bf0:	00 
  402bf1:	48 c7 44 24 08 00 00 	movq   $0x0,0x8(%rsp)
  402bf8:	00 00 
  402bfa:	66 c7 04 24 02 00    	movw   $0x2,(%rsp)
  402c00:	48 63 50 14          	movslq 0x14(%rax),%rdx
  402c04:	48 8b 40 18          	mov    0x18(%rax),%rax
  402c08:	48 8b 30             	mov    (%rax),%rsi
  402c0b:	48 8d 7c 24 04       	lea    0x4(%rsp),%rdi
  402c10:	b9 0c 00 00 00       	mov    $0xc,%ecx
  402c15:	e8 66 e1 ff ff       	callq  400d80 <__memmove_chk@plt>
  402c1a:	66 c7 44 24 02 3c 9a 	movw   $0x9a3c,0x2(%rsp)
  402c21:	ba 10 00 00 00       	mov    $0x10,%edx
  402c26:	48 89 e6             	mov    %rsp,%rsi
  402c29:	89 df                	mov    %ebx,%edi
  402c2b:	e8 30 e2 ff ff       	callq  400e60 <connect@plt>
  402c30:	85 c0                	test   %eax,%eax
  402c32:	79 50                	jns    402c84 <init_driver+0x1c1>
  402c34:	48 b8 45 72 72 6f 72 	movabs $0x55203a726f727245,%rax
  402c3b:	3a 20 55 
  402c3e:	48 89 45 00          	mov    %rax,0x0(%rbp)
  402c42:	48 b8 6e 61 62 6c 65 	movabs $0x6f7420656c62616e,%rax
  402c49:	20 74 6f 
  402c4c:	48 89 45 08          	mov    %rax,0x8(%rbp)
  402c50:	48 b8 20 63 6f 6e 6e 	movabs $0x7463656e6e6f6320,%rax
  402c57:	65 63 74 
  402c5a:	48 89 45 10          	mov    %rax,0x10(%rbp)
  402c5e:	48 b8 20 74 6f 20 73 	movabs $0x76726573206f7420,%rax
  402c65:	65 72 76 
  402c68:	48 89 45 18          	mov    %rax,0x18(%rbp)
  402c6c:	66 c7 45 20 65 72    	movw   $0x7265,0x20(%rbp)
  402c72:	c6 45 22 00          	movb   $0x0,0x22(%rbp)
  402c76:	89 df                	mov    %ebx,%edi
  402c78:	e8 b3 e0 ff ff       	callq  400d30 <close@plt>
  402c7d:	b8 ff ff ff ff       	mov    $0xffffffff,%eax
  402c82:	eb 16                	jmp    402c9a <init_driver+0x1d7>
  402c84:	89 df                	mov    %ebx,%edi
  402c86:	e8 a5 e0 ff ff       	callq  400d30 <close@plt>
  402c8b:	66 c7 45 00 4f 4b    	movw   $0x4b4f,0x0(%rbp)
  402c91:	c6 45 02 00          	movb   $0x0,0x2(%rbp)
  402c95:	b8 00 00 00 00       	mov    $0x0,%eax
  402c9a:	48 8b 4c 24 18       	mov    0x18(%rsp),%rcx
  402c9f:	64 48 33 0c 25 28 00 	xor    %fs:0x28,%rcx
  402ca6:	00 00 
  402ca8:	74 05                	je     402caf <init_driver+0x1ec>
  402caa:	e8 41 e0 ff ff       	callq  400cf0 <__stack_chk_fail@plt>
  402caf:	48 83 c4 28          	add    $0x28,%rsp
  402cb3:	5b                   	pop    %rbx
  402cb4:	5d                   	pop    %rbp
  402cb5:	c3                   	retq   

0000000000402cb6 <driver_post>:
  402cb6:	53                   	push   %rbx
  402cb7:	4c 89 cb             	mov    %r9,%rbx
  402cba:	45 85 c0             	test   %r8d,%r8d
  402cbd:	74 27                	je     402ce6 <driver_post+0x30>
  402cbf:	48 89 ca             	mov    %rcx,%rdx
  402cc2:	be 23 37 40 00       	mov    $0x403723,%esi
  402cc7:	bf 01 00 00 00       	mov    $0x1,%edi
  402ccc:	b8 00 00 00 00       	mov    $0x0,%eax
  402cd1:	e8 2a e1 ff ff       	callq  400e00 <__printf_chk@plt>
  402cd6:	66 c7 03 4f 4b       	movw   $0x4b4f,(%rbx)
  402cdb:	c6 43 02 00          	movb   $0x0,0x2(%rbx)
  402cdf:	b8 00 00 00 00       	mov    $0x0,%eax
  402ce4:	eb 3f                	jmp    402d25 <driver_post+0x6f>
  402ce6:	48 85 ff             	test   %rdi,%rdi
  402ce9:	74 2c                	je     402d17 <driver_post+0x61>
  402ceb:	80 3f 00             	cmpb   $0x0,(%rdi)
  402cee:	74 27                	je     402d17 <driver_post+0x61>
  402cf0:	48 83 ec 08          	sub    $0x8,%rsp
  402cf4:	41 51                	push   %r9
  402cf6:	49 89 c9             	mov    %rcx,%r9
  402cf9:	49 89 d0             	mov    %rdx,%r8
  402cfc:	48 89 f9             	mov    %rdi,%rcx
  402cff:	48 89 f2             	mov    %rsi,%rdx
  402d02:	be 9a 3c 00 00       	mov    $0x3c9a,%esi
  402d07:	bf 15 37 40 00       	mov    $0x403715,%edi
  402d0c:	e8 19 f6 ff ff       	callq  40232a <submitr>
  402d11:	48 83 c4 10          	add    $0x10,%rsp
  402d15:	eb 0e                	jmp    402d25 <driver_post+0x6f>
  402d17:	66 c7 03 4f 4b       	movw   $0x4b4f,(%rbx)
  402d1c:	c6 43 02 00          	movb   $0x0,0x2(%rbx)
  402d20:	b8 00 00 00 00       	mov    $0x0,%eax
  402d25:	5b                   	pop    %rbx
  402d26:	c3                   	retq   

0000000000402d27 <check>:
  402d27:	89 f8                	mov    %edi,%eax
  402d29:	c1 e8 1c             	shr    $0x1c,%eax
  402d2c:	85 c0                	test   %eax,%eax
  402d2e:	74 1d                	je     402d4d <check+0x26>
  402d30:	b9 00 00 00 00       	mov    $0x0,%ecx
  402d35:	eb 0b                	jmp    402d42 <check+0x1b>
  402d37:	89 f8                	mov    %edi,%eax
  402d39:	d3 e8                	shr    %cl,%eax
  402d3b:	3c 0a                	cmp    $0xa,%al
  402d3d:	74 14                	je     402d53 <check+0x2c>
  402d3f:	83 c1 08             	add    $0x8,%ecx
  402d42:	83 f9 1f             	cmp    $0x1f,%ecx
  402d45:	7e f0                	jle    402d37 <check+0x10>
  402d47:	b8 01 00 00 00       	mov    $0x1,%eax
  402d4c:	c3                   	retq   
  402d4d:	b8 00 00 00 00       	mov    $0x0,%eax
  402d52:	c3                   	retq   
  402d53:	b8 00 00 00 00       	mov    $0x0,%eax
  402d58:	c3                   	retq   

0000000000402d59 <gencookie>:
  402d59:	53                   	push   %rbx
  402d5a:	83 c7 01             	add    $0x1,%edi
  402d5d:	e8 3e df ff ff       	callq  400ca0 <srandom@plt>
  402d62:	e8 59 e0 ff ff       	callq  400dc0 <random@plt>
  402d67:	89 c3                	mov    %eax,%ebx
  402d69:	89 c7                	mov    %eax,%edi
  402d6b:	e8 b7 ff ff ff       	callq  402d27 <check>
  402d70:	85 c0                	test   %eax,%eax
  402d72:	74 ee                	je     402d62 <gencookie+0x9>
  402d74:	89 d8                	mov    %ebx,%eax
  402d76:	5b                   	pop    %rbx
  402d77:	c3                   	retq   
  402d78:	0f 1f 84 00 00 00 00 	nopl   0x0(%rax,%rax,1)
  402d7f:	00 

0000000000402d80 <__libc_csu_init>:
  402d80:	41 57                	push   %r15
  402d82:	41 56                	push   %r14
  402d84:	41 89 ff             	mov    %edi,%r15d
  402d87:	41 55                	push   %r13
  402d89:	41 54                	push   %r12
  402d8b:	4c 8d 25 7e 20 20 00 	lea    0x20207e(%rip),%r12        # 604e10 <__frame_dummy_init_array_entry>
  402d92:	55                   	push   %rbp
  402d93:	48 8d 2d 7e 20 20 00 	lea    0x20207e(%rip),%rbp        # 604e18 <__do_global_dtors_aux_fini_array_entry>
  402d9a:	53                   	push   %rbx
  402d9b:	49 89 f6             	mov    %rsi,%r14
  402d9e:	49 89 d5             	mov    %rdx,%r13
  402da1:	4c 29 e5             	sub    %r12,%rbp
  402da4:	48 83 ec 08          	sub    $0x8,%rsp
  402da8:	48 c1 fd 03          	sar    $0x3,%rbp
  402dac:	e8 97 de ff ff       	callq  400c48 <_init>
  402db1:	48 85 ed             	test   %rbp,%rbp
  402db4:	74 20                	je     402dd6 <__libc_csu_init+0x56>
  402db6:	31 db                	xor    %ebx,%ebx
  402db8:	0f 1f 84 00 00 00 00 	nopl   0x0(%rax,%rax,1)
  402dbf:	00 
  402dc0:	4c 89 ea             	mov    %r13,%rdx
  402dc3:	4c 89 f6             	mov    %r14,%rsi
  402dc6:	44 89 ff             	mov    %r15d,%edi
  402dc9:	41 ff 14 dc          	callq  *(%r12,%rbx,8)
  402dcd:	48 83 c3 01          	add    $0x1,%rbx
  402dd1:	48 39 eb             	cmp    %rbp,%rbx
  402dd4:	75 ea                	jne    402dc0 <__libc_csu_init+0x40>
  402dd6:	48 83 c4 08          	add    $0x8,%rsp
  402dda:	5b                   	pop    %rbx
  402ddb:	5d                   	pop    %rbp
  402ddc:	41 5c                	pop    %r12
  402dde:	41 5d                	pop    %r13
  402de0:	41 5e                	pop    %r14
  402de2:	41 5f                	pop    %r15
  402de4:	c3                   	retq   
  402de5:	90                   	nop
  402de6:	66 2e 0f 1f 84 00 00 	nopw   %cs:0x0(%rax,%rax,1)
  402ded:	00 00 00 

0000000000402df0 <__libc_csu_fini>:
  402df0:	f3 c3                	repz retq 

Disassembly of section .fini:

0000000000402df4 <_fini>:
  402df4:	48 83 ec 08          	sub    $0x8,%rsp
  402df8:	48 83 c4 08          	add    $0x8,%rsp
  402dfc:	c3                   	retq   
