
rtarget:     file format elf64-x86-64


Disassembly of section .init:

0000000000400c48 <_init>:
  400c48:	48 83 ec 08          	sub    $0x8,%rsp
  400c4c:	48 8b 05 a5 43 20 00 	mov    0x2043a5(%rip),%rax        # 604ff8 <__gmon_start__>
  400c53:	48 85 c0             	test   %rax,%rax
  400c56:	74 05                	je     400c5d <_init+0x15>
  400c58:	e8 43 02 00 00       	callq  400ea0 <__gmon_start__@plt>
  400c5d:	48 83 c4 08          	add    $0x8,%rsp
  400c61:	c3                   	retq   

Disassembly of section .plt:

0000000000400c70 <.plt>:
  400c70:	ff 35 92 43 20 00    	pushq  0x204392(%rip)        # 605008 <_GLOBAL_OFFSET_TABLE_+0x8>
  400c76:	ff 25 94 43 20 00    	jmpq   *0x204394(%rip)        # 605010 <_GLOBAL_OFFSET_TABLE_+0x10>
  400c7c:	0f 1f 40 00          	nopl   0x0(%rax)

0000000000400c80 <strcasecmp@plt>:
  400c80:	ff 25 92 43 20 00    	jmpq   *0x204392(%rip)        # 605018 <strcasecmp@GLIBC_2.2.5>
  400c86:	68 00 00 00 00       	pushq  $0x0
  400c8b:	e9 e0 ff ff ff       	jmpq   400c70 <.plt>

0000000000400c90 <__errno_location@plt>:
  400c90:	ff 25 8a 43 20 00    	jmpq   *0x20438a(%rip)        # 605020 <__errno_location@GLIBC_2.2.5>
  400c96:	68 01 00 00 00       	pushq  $0x1
  400c9b:	e9 d0 ff ff ff       	jmpq   400c70 <.plt>

0000000000400ca0 <srandom@plt>:
  400ca0:	ff 25 82 43 20 00    	jmpq   *0x204382(%rip)        # 605028 <srandom@GLIBC_2.2.5>
  400ca6:	68 02 00 00 00       	pushq  $0x2
  400cab:	e9 c0 ff ff ff       	jmpq   400c70 <.plt>

0000000000400cb0 <strncmp@plt>:
  400cb0:	ff 25 7a 43 20 00    	jmpq   *0x20437a(%rip)        # 605030 <strncmp@GLIBC_2.2.5>
  400cb6:	68 03 00 00 00       	pushq  $0x3
  400cbb:	e9 b0 ff ff ff       	jmpq   400c70 <.plt>

0000000000400cc0 <strcpy@plt>:
  400cc0:	ff 25 72 43 20 00    	jmpq   *0x204372(%rip)        # 605038 <strcpy@GLIBC_2.2.5>
  400cc6:	68 04 00 00 00       	pushq  $0x4
  400ccb:	e9 a0 ff ff ff       	jmpq   400c70 <.plt>

0000000000400cd0 <puts@plt>:
  400cd0:	ff 25 6a 43 20 00    	jmpq   *0x20436a(%rip)        # 605040 <puts@GLIBC_2.2.5>
  400cd6:	68 05 00 00 00       	pushq  $0x5
  400cdb:	e9 90 ff ff ff       	jmpq   400c70 <.plt>

0000000000400ce0 <write@plt>:
  400ce0:	ff 25 62 43 20 00    	jmpq   *0x204362(%rip)        # 605048 <write@GLIBC_2.2.5>
  400ce6:	68 06 00 00 00       	pushq  $0x6
  400ceb:	e9 80 ff ff ff       	jmpq   400c70 <.plt>

0000000000400cf0 <__stack_chk_fail@plt>:
  400cf0:	ff 25 5a 43 20 00    	jmpq   *0x20435a(%rip)        # 605050 <__stack_chk_fail@GLIBC_2.4>
  400cf6:	68 07 00 00 00       	pushq  $0x7
  400cfb:	e9 70 ff ff ff       	jmpq   400c70 <.plt>

0000000000400d00 <mmap@plt>:
  400d00:	ff 25 52 43 20 00    	jmpq   *0x204352(%rip)        # 605058 <mmap@GLIBC_2.2.5>
  400d06:	68 08 00 00 00       	pushq  $0x8
  400d0b:	e9 60 ff ff ff       	jmpq   400c70 <.plt>

0000000000400d10 <memset@plt>:
  400d10:	ff 25 4a 43 20 00    	jmpq   *0x20434a(%rip)        # 605060 <memset@GLIBC_2.2.5>
  400d16:	68 09 00 00 00       	pushq  $0x9
  400d1b:	e9 50 ff ff ff       	jmpq   400c70 <.plt>

0000000000400d20 <alarm@plt>:
  400d20:	ff 25 42 43 20 00    	jmpq   *0x204342(%rip)        # 605068 <alarm@GLIBC_2.2.5>
  400d26:	68 0a 00 00 00       	pushq  $0xa
  400d2b:	e9 40 ff ff ff       	jmpq   400c70 <.plt>

0000000000400d30 <close@plt>:
  400d30:	ff 25 3a 43 20 00    	jmpq   *0x20433a(%rip)        # 605070 <close@GLIBC_2.2.5>
  400d36:	68 0b 00 00 00       	pushq  $0xb
  400d3b:	e9 30 ff ff ff       	jmpq   400c70 <.plt>

0000000000400d40 <read@plt>:
  400d40:	ff 25 32 43 20 00    	jmpq   *0x204332(%rip)        # 605078 <read@GLIBC_2.2.5>
  400d46:	68 0c 00 00 00       	pushq  $0xc
  400d4b:	e9 20 ff ff ff       	jmpq   400c70 <.plt>

0000000000400d50 <__libc_start_main@plt>:
  400d50:	ff 25 2a 43 20 00    	jmpq   *0x20432a(%rip)        # 605080 <__libc_start_main@GLIBC_2.2.5>
  400d56:	68 0d 00 00 00       	pushq  $0xd
  400d5b:	e9 10 ff ff ff       	jmpq   400c70 <.plt>

0000000000400d60 <signal@plt>:
  400d60:	ff 25 22 43 20 00    	jmpq   *0x204322(%rip)        # 605088 <signal@GLIBC_2.2.5>
  400d66:	68 0e 00 00 00       	pushq  $0xe
  400d6b:	e9 00 ff ff ff       	jmpq   400c70 <.plt>

0000000000400d70 <gethostbyname@plt>:
  400d70:	ff 25 1a 43 20 00    	jmpq   *0x20431a(%rip)        # 605090 <gethostbyname@GLIBC_2.2.5>
  400d76:	68 0f 00 00 00       	pushq  $0xf
  400d7b:	e9 f0 fe ff ff       	jmpq   400c70 <.plt>

0000000000400d80 <__memmove_chk@plt>:
  400d80:	ff 25 12 43 20 00    	jmpq   *0x204312(%rip)        # 605098 <__memmove_chk@GLIBC_2.3.4>
  400d86:	68 10 00 00 00       	pushq  $0x10
  400d8b:	e9 e0 fe ff ff       	jmpq   400c70 <.plt>

0000000000400d90 <strtol@plt>:
  400d90:	ff 25 0a 43 20 00    	jmpq   *0x20430a(%rip)        # 6050a0 <strtol@GLIBC_2.2.5>
  400d96:	68 11 00 00 00       	pushq  $0x11
  400d9b:	e9 d0 fe ff ff       	jmpq   400c70 <.plt>

0000000000400da0 <memcpy@plt>:
  400da0:	ff 25 02 43 20 00    	jmpq   *0x204302(%rip)        # 6050a8 <memcpy@GLIBC_2.14>
  400da6:	68 12 00 00 00       	pushq  $0x12
  400dab:	e9 c0 fe ff ff       	jmpq   400c70 <.plt>

0000000000400db0 <time@plt>:
  400db0:	ff 25 fa 42 20 00    	jmpq   *0x2042fa(%rip)        # 6050b0 <time@GLIBC_2.2.5>
  400db6:	68 13 00 00 00       	pushq  $0x13
  400dbb:	e9 b0 fe ff ff       	jmpq   400c70 <.plt>

0000000000400dc0 <random@plt>:
  400dc0:	ff 25 f2 42 20 00    	jmpq   *0x2042f2(%rip)        # 6050b8 <random@GLIBC_2.2.5>
  400dc6:	68 14 00 00 00       	pushq  $0x14
  400dcb:	e9 a0 fe ff ff       	jmpq   400c70 <.plt>

0000000000400dd0 <_IO_getc@plt>:
  400dd0:	ff 25 ea 42 20 00    	jmpq   *0x2042ea(%rip)        # 6050c0 <_IO_getc@GLIBC_2.2.5>
  400dd6:	68 15 00 00 00       	pushq  $0x15
  400ddb:	e9 90 fe ff ff       	jmpq   400c70 <.plt>

0000000000400de0 <__isoc99_sscanf@plt>:
  400de0:	ff 25 e2 42 20 00    	jmpq   *0x2042e2(%rip)        # 6050c8 <__isoc99_sscanf@GLIBC_2.7>
  400de6:	68 16 00 00 00       	pushq  $0x16
  400deb:	e9 80 fe ff ff       	jmpq   400c70 <.plt>

0000000000400df0 <munmap@plt>:
  400df0:	ff 25 da 42 20 00    	jmpq   *0x2042da(%rip)        # 6050d0 <munmap@GLIBC_2.2.5>
  400df6:	68 17 00 00 00       	pushq  $0x17
  400dfb:	e9 70 fe ff ff       	jmpq   400c70 <.plt>

0000000000400e00 <__printf_chk@plt>:
  400e00:	ff 25 d2 42 20 00    	jmpq   *0x2042d2(%rip)        # 6050d8 <__printf_chk@GLIBC_2.3.4>
  400e06:	68 18 00 00 00       	pushq  $0x18
  400e0b:	e9 60 fe ff ff       	jmpq   400c70 <.plt>

0000000000400e10 <fopen@plt>:
  400e10:	ff 25 ca 42 20 00    	jmpq   *0x2042ca(%rip)        # 6050e0 <fopen@GLIBC_2.2.5>
  400e16:	68 19 00 00 00       	pushq  $0x19
  400e1b:	e9 50 fe ff ff       	jmpq   400c70 <.plt>

0000000000400e20 <getopt@plt>:
  400e20:	ff 25 c2 42 20 00    	jmpq   *0x2042c2(%rip)        # 6050e8 <getopt@GLIBC_2.2.5>
  400e26:	68 1a 00 00 00       	pushq  $0x1a
  400e2b:	e9 40 fe ff ff       	jmpq   400c70 <.plt>

0000000000400e30 <strtoul@plt>:
  400e30:	ff 25 ba 42 20 00    	jmpq   *0x2042ba(%rip)        # 6050f0 <strtoul@GLIBC_2.2.5>
  400e36:	68 1b 00 00 00       	pushq  $0x1b
  400e3b:	e9 30 fe ff ff       	jmpq   400c70 <.plt>

0000000000400e40 <gethostname@plt>:
  400e40:	ff 25 b2 42 20 00    	jmpq   *0x2042b2(%rip)        # 6050f8 <gethostname@GLIBC_2.2.5>
  400e46:	68 1c 00 00 00       	pushq  $0x1c
  400e4b:	e9 20 fe ff ff       	jmpq   400c70 <.plt>

0000000000400e50 <exit@plt>:
  400e50:	ff 25 aa 42 20 00    	jmpq   *0x2042aa(%rip)        # 605100 <exit@GLIBC_2.2.5>
  400e56:	68 1d 00 00 00       	pushq  $0x1d
  400e5b:	e9 10 fe ff ff       	jmpq   400c70 <.plt>

0000000000400e60 <connect@plt>:
  400e60:	ff 25 a2 42 20 00    	jmpq   *0x2042a2(%rip)        # 605108 <connect@GLIBC_2.2.5>
  400e66:	68 1e 00 00 00       	pushq  $0x1e
  400e6b:	e9 00 fe ff ff       	jmpq   400c70 <.plt>

0000000000400e70 <__fprintf_chk@plt>:
  400e70:	ff 25 9a 42 20 00    	jmpq   *0x20429a(%rip)        # 605110 <__fprintf_chk@GLIBC_2.3.4>
  400e76:	68 1f 00 00 00       	pushq  $0x1f
  400e7b:	e9 f0 fd ff ff       	jmpq   400c70 <.plt>

0000000000400e80 <__sprintf_chk@plt>:
  400e80:	ff 25 92 42 20 00    	jmpq   *0x204292(%rip)        # 605118 <__sprintf_chk@GLIBC_2.3.4>
  400e86:	68 20 00 00 00       	pushq  $0x20
  400e8b:	e9 e0 fd ff ff       	jmpq   400c70 <.plt>

0000000000400e90 <socket@plt>:
  400e90:	ff 25 8a 42 20 00    	jmpq   *0x20428a(%rip)        # 605120 <socket@GLIBC_2.2.5>
  400e96:	68 21 00 00 00       	pushq  $0x21
  400e9b:	e9 d0 fd ff ff       	jmpq   400c70 <.plt>

Disassembly of section .plt.got:

0000000000400ea0 <__gmon_start__@plt>:
  400ea0:	ff 25 52 41 20 00    	jmpq   *0x204152(%rip)        # 604ff8 <__gmon_start__>
  400ea6:	66 90                	xchg   %ax,%ax

Disassembly of section .text:

0000000000400eb0 <_start>:
  400eb0:	31 ed                	xor    %ebp,%ebp
  400eb2:	49 89 d1             	mov    %rdx,%r9
  400eb5:	5e                   	pop    %rsi
  400eb6:	48 89 e2             	mov    %rsp,%rdx
  400eb9:	48 83 e4 f0          	and    $0xfffffffffffffff0,%rsp
  400ebd:	50                   	push   %rax
  400ebe:	54                   	push   %rsp
  400ebf:	49 c7 c0 10 2f 40 00 	mov    $0x402f10,%r8
  400ec6:	48 c7 c1 a0 2e 40 00 	mov    $0x402ea0,%rcx
  400ecd:	48 c7 c7 b5 11 40 00 	mov    $0x4011b5,%rdi
  400ed4:	e8 77 fe ff ff       	callq  400d50 <__libc_start_main@plt>
  400ed9:	f4                   	hlt    
  400eda:	66 0f 1f 44 00 00    	nopw   0x0(%rax,%rax,1)

0000000000400ee0 <deregister_tm_clones>:
  400ee0:	b8 b7 54 60 00       	mov    $0x6054b7,%eax
  400ee5:	55                   	push   %rbp
  400ee6:	48 2d b0 54 60 00    	sub    $0x6054b0,%rax
  400eec:	48 83 f8 0e          	cmp    $0xe,%rax
  400ef0:	48 89 e5             	mov    %rsp,%rbp
  400ef3:	76 1b                	jbe    400f10 <deregister_tm_clones+0x30>
  400ef5:	b8 00 00 00 00       	mov    $0x0,%eax
  400efa:	48 85 c0             	test   %rax,%rax
  400efd:	74 11                	je     400f10 <deregister_tm_clones+0x30>
  400eff:	5d                   	pop    %rbp
  400f00:	bf b0 54 60 00       	mov    $0x6054b0,%edi
  400f05:	ff e0                	jmpq   *%rax
  400f07:	66 0f 1f 84 00 00 00 	nopw   0x0(%rax,%rax,1)
  400f0e:	00 00 
  400f10:	5d                   	pop    %rbp
  400f11:	c3                   	retq   
  400f12:	0f 1f 40 00          	nopl   0x0(%rax)
  400f16:	66 2e 0f 1f 84 00 00 	nopw   %cs:0x0(%rax,%rax,1)
  400f1d:	00 00 00 

0000000000400f20 <register_tm_clones>:
  400f20:	be b0 54 60 00       	mov    $0x6054b0,%esi
  400f25:	55                   	push   %rbp
  400f26:	48 81 ee b0 54 60 00 	sub    $0x6054b0,%rsi
  400f2d:	48 c1 fe 03          	sar    $0x3,%rsi
  400f31:	48 89 e5             	mov    %rsp,%rbp
  400f34:	48 89 f0             	mov    %rsi,%rax
  400f37:	48 c1 e8 3f          	shr    $0x3f,%rax
  400f3b:	48 01 c6             	add    %rax,%rsi
  400f3e:	48 d1 fe             	sar    %rsi
  400f41:	74 15                	je     400f58 <register_tm_clones+0x38>
  400f43:	b8 00 00 00 00       	mov    $0x0,%eax
  400f48:	48 85 c0             	test   %rax,%rax
  400f4b:	74 0b                	je     400f58 <register_tm_clones+0x38>
  400f4d:	5d                   	pop    %rbp
  400f4e:	bf b0 54 60 00       	mov    $0x6054b0,%edi
  400f53:	ff e0                	jmpq   *%rax
  400f55:	0f 1f 00             	nopl   (%rax)
  400f58:	5d                   	pop    %rbp
  400f59:	c3                   	retq   
  400f5a:	66 0f 1f 44 00 00    	nopw   0x0(%rax,%rax,1)

0000000000400f60 <__do_global_dtors_aux>:
  400f60:	80 3d 81 45 20 00 00 	cmpb   $0x0,0x204581(%rip)        # 6054e8 <completed.7585>
  400f67:	75 11                	jne    400f7a <__do_global_dtors_aux+0x1a>
  400f69:	55                   	push   %rbp
  400f6a:	48 89 e5             	mov    %rsp,%rbp
  400f6d:	e8 6e ff ff ff       	callq  400ee0 <deregister_tm_clones>
  400f72:	5d                   	pop    %rbp
  400f73:	c6 05 6e 45 20 00 01 	movb   $0x1,0x20456e(%rip)        # 6054e8 <completed.7585>
  400f7a:	f3 c3                	repz retq 
  400f7c:	0f 1f 40 00          	nopl   0x0(%rax)

0000000000400f80 <frame_dummy>:
  400f80:	bf 20 4e 60 00       	mov    $0x604e20,%edi
  400f85:	48 83 3f 00          	cmpq   $0x0,(%rdi)
  400f89:	75 05                	jne    400f90 <frame_dummy+0x10>
  400f8b:	eb 93                	jmp    400f20 <register_tm_clones>
  400f8d:	0f 1f 00             	nopl   (%rax)
  400f90:	b8 00 00 00 00       	mov    $0x0,%eax
  400f95:	48 85 c0             	test   %rax,%rax
  400f98:	74 f1                	je     400f8b <frame_dummy+0xb>
  400f9a:	55                   	push   %rbp
  400f9b:	48 89 e5             	mov    %rsp,%rbp
  400f9e:	ff d0                	callq  *%rax
  400fa0:	5d                   	pop    %rbp
  400fa1:	e9 7a ff ff ff       	jmpq   400f20 <register_tm_clones>

0000000000400fa6 <usage>:
  400fa6:	48 83 ec 08          	sub    $0x8,%rsp
  400faa:	48 89 fa             	mov    %rdi,%rdx
  400fad:	83 3d 74 45 20 00 00 	cmpl   $0x0,0x204574(%rip)        # 605528 <is_checker>
  400fb4:	74 3e                	je     400ff4 <usage+0x4e>
  400fb6:	be 28 2f 40 00       	mov    $0x402f28,%esi
  400fbb:	bf 01 00 00 00       	mov    $0x1,%edi
  400fc0:	b8 00 00 00 00       	mov    $0x0,%eax
  400fc5:	e8 36 fe ff ff       	callq  400e00 <__printf_chk@plt>
  400fca:	bf 60 2f 40 00       	mov    $0x402f60,%edi
  400fcf:	e8 fc fc ff ff       	callq  400cd0 <puts@plt>
  400fd4:	bf d8 30 40 00       	mov    $0x4030d8,%edi
  400fd9:	e8 f2 fc ff ff       	callq  400cd0 <puts@plt>
  400fde:	bf 88 2f 40 00       	mov    $0x402f88,%edi
  400fe3:	e8 e8 fc ff ff       	callq  400cd0 <puts@plt>
  400fe8:	bf f2 30 40 00       	mov    $0x4030f2,%edi
  400fed:	e8 de fc ff ff       	callq  400cd0 <puts@plt>
  400ff2:	eb 32                	jmp    401026 <usage+0x80>
  400ff4:	be 0e 31 40 00       	mov    $0x40310e,%esi
  400ff9:	bf 01 00 00 00       	mov    $0x1,%edi
  400ffe:	b8 00 00 00 00       	mov    $0x0,%eax
  401003:	e8 f8 fd ff ff       	callq  400e00 <__printf_chk@plt>
  401008:	bf b0 2f 40 00       	mov    $0x402fb0,%edi
  40100d:	e8 be fc ff ff       	callq  400cd0 <puts@plt>
  401012:	bf d8 2f 40 00       	mov    $0x402fd8,%edi
  401017:	e8 b4 fc ff ff       	callq  400cd0 <puts@plt>
  40101c:	bf 2c 31 40 00       	mov    $0x40312c,%edi
  401021:	e8 aa fc ff ff       	callq  400cd0 <puts@plt>
  401026:	bf 00 00 00 00       	mov    $0x0,%edi
  40102b:	e8 20 fe ff ff       	callq  400e50 <exit@plt>

0000000000401030 <initialize_target>:
  401030:	55                   	push   %rbp
  401031:	53                   	push   %rbx
  401032:	48 81 ec 18 21 00 00 	sub    $0x2118,%rsp
  401039:	89 f5                	mov    %esi,%ebp
  40103b:	64 48 8b 04 25 28 00 	mov    %fs:0x28,%rax
  401042:	00 00 
  401044:	48 89 84 24 08 21 00 	mov    %rax,0x2108(%rsp)
  40104b:	00 
  40104c:	31 c0                	xor    %eax,%eax
  40104e:	89 3d c4 44 20 00    	mov    %edi,0x2044c4(%rip)        # 605518 <check_level>
  401054:	8b 3d 0e 41 20 00    	mov    0x20410e(%rip),%edi        # 605168 <target_id>
  40105a:	e8 1b 1e 00 00       	callq  402e7a <gencookie>
  40105f:	89 05 bf 44 20 00    	mov    %eax,0x2044bf(%rip)        # 605524 <cookie>
  401065:	89 c7                	mov    %eax,%edi
  401067:	e8 0e 1e 00 00       	callq  402e7a <gencookie>
  40106c:	89 05 ae 44 20 00    	mov    %eax,0x2044ae(%rip)        # 605520 <authkey>
  401072:	8b 05 f0 40 20 00    	mov    0x2040f0(%rip),%eax        # 605168 <target_id>
  401078:	8d 78 01             	lea    0x1(%rax),%edi
  40107b:	e8 20 fc ff ff       	callq  400ca0 <srandom@plt>
  401080:	e8 3b fd ff ff       	callq  400dc0 <random@plt>
  401085:	89 c7                	mov    %eax,%edi
  401087:	e8 03 03 00 00       	callq  40138f <scramble>
  40108c:	89 c3                	mov    %eax,%ebx
  40108e:	85 ed                	test   %ebp,%ebp
  401090:	74 18                	je     4010aa <initialize_target+0x7a>
  401092:	bf 00 00 00 00       	mov    $0x0,%edi
  401097:	e8 14 fd ff ff       	callq  400db0 <time@plt>
  40109c:	89 c7                	mov    %eax,%edi
  40109e:	e8 fd fb ff ff       	callq  400ca0 <srandom@plt>
  4010a3:	e8 18 fd ff ff       	callq  400dc0 <random@plt>
  4010a8:	eb 05                	jmp    4010af <initialize_target+0x7f>
  4010aa:	b8 00 00 00 00       	mov    $0x0,%eax
  4010af:	01 c3                	add    %eax,%ebx
  4010b1:	0f b7 db             	movzwl %bx,%ebx
  4010b4:	8d 04 dd 00 01 00 00 	lea    0x100(,%rbx,8),%eax
  4010bb:	89 c0                	mov    %eax,%eax
  4010bd:	48 89 05 dc 43 20 00 	mov    %rax,0x2043dc(%rip)        # 6054a0 <buf_offset>
  4010c4:	c6 05 7d 50 20 00 72 	movb   $0x72,0x20507d(%rip)        # 606148 <target_prefix>
  4010cb:	83 3d d6 43 20 00 00 	cmpl   $0x0,0x2043d6(%rip)        # 6054a8 <notify>
  4010d2:	0f 84 bb 00 00 00    	je     401193 <initialize_target+0x163>
  4010d8:	83 3d 49 44 20 00 00 	cmpl   $0x0,0x204449(%rip)        # 605528 <is_checker>
  4010df:	0f 85 ae 00 00 00    	jne    401193 <initialize_target+0x163>
  4010e5:	be 00 01 00 00       	mov    $0x100,%esi
  4010ea:	48 89 e7             	mov    %rsp,%rdi
  4010ed:	e8 4e fd ff ff       	callq  400e40 <gethostname@plt>
  4010f2:	85 c0                	test   %eax,%eax
  4010f4:	74 25                	je     40111b <initialize_target+0xeb>
  4010f6:	bf 08 30 40 00       	mov    $0x403008,%edi
  4010fb:	e8 d0 fb ff ff       	callq  400cd0 <puts@plt>
  401100:	bf 08 00 00 00       	mov    $0x8,%edi
  401105:	e8 46 fd ff ff       	callq  400e50 <exit@plt>
  40110a:	48 89 e6             	mov    %rsp,%rsi
  40110d:	e8 6e fb ff ff       	callq  400c80 <strcasecmp@plt>
  401112:	85 c0                	test   %eax,%eax
  401114:	74 21                	je     401137 <initialize_target+0x107>
  401116:	83 c3 01             	add    $0x1,%ebx
  401119:	eb 05                	jmp    401120 <initialize_target+0xf0>
  40111b:	bb 00 00 00 00       	mov    $0x0,%ebx
  401120:	48 63 c3             	movslq %ebx,%rax
  401123:	48 8b 3c c5 80 51 60 	mov    0x605180(,%rax,8),%rdi
  40112a:	00 
  40112b:	48 85 ff             	test   %rdi,%rdi
  40112e:	75 da                	jne    40110a <initialize_target+0xda>
  401130:	b8 00 00 00 00       	mov    $0x0,%eax
  401135:	eb 05                	jmp    40113c <initialize_target+0x10c>
  401137:	b8 01 00 00 00       	mov    $0x1,%eax
  40113c:	85 c0                	test   %eax,%eax
  40113e:	75 1c                	jne    40115c <initialize_target+0x12c>
  401140:	48 89 e2             	mov    %rsp,%rdx
  401143:	be 40 30 40 00       	mov    $0x403040,%esi
  401148:	bf 01 00 00 00       	mov    $0x1,%edi
  40114d:	e8 ae fc ff ff       	callq  400e00 <__printf_chk@plt>
  401152:	bf 08 00 00 00       	mov    $0x8,%edi
  401157:	e8 f4 fc ff ff       	callq  400e50 <exit@plt>
  40115c:	48 8d bc 24 00 01 00 	lea    0x100(%rsp),%rdi
  401163:	00 
  401164:	e8 7b 1a 00 00       	callq  402be4 <init_driver>
  401169:	85 c0                	test   %eax,%eax
  40116b:	79 26                	jns    401193 <initialize_target+0x163>
  40116d:	48 8d 94 24 00 01 00 	lea    0x100(%rsp),%rdx
  401174:	00 
  401175:	be 80 30 40 00       	mov    $0x403080,%esi
  40117a:	bf 01 00 00 00       	mov    $0x1,%edi
  40117f:	b8 00 00 00 00       	mov    $0x0,%eax
  401184:	e8 77 fc ff ff       	callq  400e00 <__printf_chk@plt>
  401189:	bf 08 00 00 00       	mov    $0x8,%edi
  40118e:	e8 bd fc ff ff       	callq  400e50 <exit@plt>
  401193:	48 8b 84 24 08 21 00 	mov    0x2108(%rsp),%rax
  40119a:	00 
  40119b:	64 48 33 04 25 28 00 	xor    %fs:0x28,%rax
  4011a2:	00 00 
  4011a4:	74 05                	je     4011ab <initialize_target+0x17b>
  4011a6:	e8 45 fb ff ff       	callq  400cf0 <__stack_chk_fail@plt>
  4011ab:	48 81 c4 18 21 00 00 	add    $0x2118,%rsp
  4011b2:	5b                   	pop    %rbx
  4011b3:	5d                   	pop    %rbp
  4011b4:	c3                   	retq   

00000000004011b5 <main>:
  4011b5:	41 56                	push   %r14
  4011b7:	41 55                	push   %r13
  4011b9:	41 54                	push   %r12
  4011bb:	55                   	push   %rbp
  4011bc:	53                   	push   %rbx
  4011bd:	41 89 fc             	mov    %edi,%r12d
  4011c0:	48 89 f3             	mov    %rsi,%rbx
  4011c3:	be 1f 1f 40 00       	mov    $0x401f1f,%esi
  4011c8:	bf 0b 00 00 00       	mov    $0xb,%edi
  4011cd:	e8 8e fb ff ff       	callq  400d60 <signal@plt>
  4011d2:	be d1 1e 40 00       	mov    $0x401ed1,%esi
  4011d7:	bf 07 00 00 00       	mov    $0x7,%edi
  4011dc:	e8 7f fb ff ff       	callq  400d60 <signal@plt>
  4011e1:	be 6d 1f 40 00       	mov    $0x401f6d,%esi
  4011e6:	bf 04 00 00 00       	mov    $0x4,%edi
  4011eb:	e8 70 fb ff ff       	callq  400d60 <signal@plt>
  4011f0:	83 3d 31 43 20 00 00 	cmpl   $0x0,0x204331(%rip)        # 605528 <is_checker>
  4011f7:	74 20                	je     401219 <main+0x64>
  4011f9:	be bb 1f 40 00       	mov    $0x401fbb,%esi
  4011fe:	bf 0e 00 00 00       	mov    $0xe,%edi
  401203:	e8 58 fb ff ff       	callq  400d60 <signal@plt>
  401208:	bf 05 00 00 00       	mov    $0x5,%edi
  40120d:	e8 0e fb ff ff       	callq  400d20 <alarm@plt>
  401212:	bd 4a 31 40 00       	mov    $0x40314a,%ebp
  401217:	eb 05                	jmp    40121e <main+0x69>
  401219:	bd 45 31 40 00       	mov    $0x403145,%ebp
  40121e:	48 8b 05 9b 42 20 00 	mov    0x20429b(%rip),%rax        # 6054c0 <stdin@@GLIBC_2.2.5>
  401225:	48 89 05 e4 42 20 00 	mov    %rax,0x2042e4(%rip)        # 605510 <infile>
  40122c:	41 bd 00 00 00 00    	mov    $0x0,%r13d
  401232:	41 be 00 00 00 00    	mov    $0x0,%r14d
  401238:	e9 c6 00 00 00       	jmpq   401303 <main+0x14e>
  40123d:	83 e8 61             	sub    $0x61,%eax
  401240:	3c 10                	cmp    $0x10,%al
  401242:	0f 87 9c 00 00 00    	ja     4012e4 <main+0x12f>
  401248:	0f b6 c0             	movzbl %al,%eax
  40124b:	ff 24 c5 90 31 40 00 	jmpq   *0x403190(,%rax,8)
  401252:	48 8b 3b             	mov    (%rbx),%rdi
  401255:	e8 4c fd ff ff       	callq  400fa6 <usage>
  40125a:	be 45 33 40 00       	mov    $0x403345,%esi
  40125f:	48 8b 3d 62 42 20 00 	mov    0x204262(%rip),%rdi        # 6054c8 <optarg@@GLIBC_2.2.5>
  401266:	e8 a5 fb ff ff       	callq  400e10 <fopen@plt>
  40126b:	48 89 05 9e 42 20 00 	mov    %rax,0x20429e(%rip)        # 605510 <infile>
  401272:	48 85 c0             	test   %rax,%rax
  401275:	0f 85 88 00 00 00    	jne    401303 <main+0x14e>
  40127b:	48 8b 0d 46 42 20 00 	mov    0x204246(%rip),%rcx        # 6054c8 <optarg@@GLIBC_2.2.5>
  401282:	ba 52 31 40 00       	mov    $0x403152,%edx
  401287:	be 01 00 00 00       	mov    $0x1,%esi
  40128c:	48 8b 3d 4d 42 20 00 	mov    0x20424d(%rip),%rdi        # 6054e0 <stderr@@GLIBC_2.2.5>
  401293:	e8 d8 fb ff ff       	callq  400e70 <__fprintf_chk@plt>
  401298:	b8 01 00 00 00       	mov    $0x1,%eax
  40129d:	e9 e4 00 00 00       	jmpq   401386 <main+0x1d1>
  4012a2:	ba 10 00 00 00       	mov    $0x10,%edx
  4012a7:	be 00 00 00 00       	mov    $0x0,%esi
  4012ac:	48 8b 3d 15 42 20 00 	mov    0x204215(%rip),%rdi        # 6054c8 <optarg@@GLIBC_2.2.5>
  4012b3:	e8 78 fb ff ff       	callq  400e30 <strtoul@plt>
  4012b8:	41 89 c6             	mov    %eax,%r14d
  4012bb:	eb 46                	jmp    401303 <main+0x14e>
  4012bd:	ba 0a 00 00 00       	mov    $0xa,%edx
  4012c2:	be 00 00 00 00       	mov    $0x0,%esi
  4012c7:	48 8b 3d fa 41 20 00 	mov    0x2041fa(%rip),%rdi        # 6054c8 <optarg@@GLIBC_2.2.5>
  4012ce:	e8 bd fa ff ff       	callq  400d90 <strtol@plt>
  4012d3:	41 89 c5             	mov    %eax,%r13d
  4012d6:	eb 2b                	jmp    401303 <main+0x14e>
  4012d8:	c7 05 c6 41 20 00 00 	movl   $0x0,0x2041c6(%rip)        # 6054a8 <notify>
  4012df:	00 00 00 
  4012e2:	eb 1f                	jmp    401303 <main+0x14e>
  4012e4:	0f be d2             	movsbl %dl,%edx
  4012e7:	be 6f 31 40 00       	mov    $0x40316f,%esi
  4012ec:	bf 01 00 00 00       	mov    $0x1,%edi
  4012f1:	b8 00 00 00 00       	mov    $0x0,%eax
  4012f6:	e8 05 fb ff ff       	callq  400e00 <__printf_chk@plt>
  4012fb:	48 8b 3b             	mov    (%rbx),%rdi
  4012fe:	e8 a3 fc ff ff       	callq  400fa6 <usage>
  401303:	48 89 ea             	mov    %rbp,%rdx
  401306:	48 89 de             	mov    %rbx,%rsi
  401309:	44 89 e7             	mov    %r12d,%edi
  40130c:	e8 0f fb ff ff       	callq  400e20 <getopt@plt>
  401311:	89 c2                	mov    %eax,%edx
  401313:	3c ff                	cmp    $0xff,%al
  401315:	0f 85 22 ff ff ff    	jne    40123d <main+0x88>
  40131b:	be 01 00 00 00       	mov    $0x1,%esi
  401320:	44 89 ef             	mov    %r13d,%edi
  401323:	e8 08 fd ff ff       	callq  401030 <initialize_target>
  401328:	83 3d f9 41 20 00 00 	cmpl   $0x0,0x2041f9(%rip)        # 605528 <is_checker>
  40132f:	74 2a                	je     40135b <main+0x1a6>
  401331:	44 3b 35 e8 41 20 00 	cmp    0x2041e8(%rip),%r14d        # 605520 <authkey>
  401338:	74 21                	je     40135b <main+0x1a6>
  40133a:	44 89 f2             	mov    %r14d,%edx
  40133d:	be a8 30 40 00       	mov    $0x4030a8,%esi
  401342:	bf 01 00 00 00       	mov    $0x1,%edi
  401347:	b8 00 00 00 00       	mov    $0x0,%eax
  40134c:	e8 af fa ff ff       	callq  400e00 <__printf_chk@plt>
  401351:	b8 00 00 00 00       	mov    $0x0,%eax
  401356:	e8 f8 07 00 00       	callq  401b53 <check_fail>
  40135b:	8b 15 c3 41 20 00    	mov    0x2041c3(%rip),%edx        # 605524 <cookie>
  401361:	be 82 31 40 00       	mov    $0x403182,%esi
  401366:	bf 01 00 00 00       	mov    $0x1,%edi
  40136b:	b8 00 00 00 00       	mov    $0x0,%eax
  401370:	e8 8b fa ff ff       	callq  400e00 <__printf_chk@plt>
  401375:	48 8b 3d 24 41 20 00 	mov    0x204124(%rip),%rdi        # 6054a0 <buf_offset>
  40137c:	e8 8d 0c 00 00       	callq  40200e <launch>
  401381:	b8 00 00 00 00       	mov    $0x0,%eax
  401386:	5b                   	pop    %rbx
  401387:	5d                   	pop    %rbp
  401388:	41 5c                	pop    %r12
  40138a:	41 5d                	pop    %r13
  40138c:	41 5e                	pop    %r14
  40138e:	c3                   	retq   

000000000040138f <scramble>:
  40138f:	48 83 ec 38          	sub    $0x38,%rsp
  401393:	64 48 8b 04 25 28 00 	mov    %fs:0x28,%rax
  40139a:	00 00 
  40139c:	48 89 44 24 28       	mov    %rax,0x28(%rsp)
  4013a1:	31 c0                	xor    %eax,%eax
  4013a3:	eb 10                	jmp    4013b5 <scramble+0x26>
  4013a5:	69 d0 6b 7d 00 00    	imul   $0x7d6b,%eax,%edx
  4013ab:	01 fa                	add    %edi,%edx
  4013ad:	89 c1                	mov    %eax,%ecx
  4013af:	89 14 8c             	mov    %edx,(%rsp,%rcx,4)
  4013b2:	83 c0 01             	add    $0x1,%eax
  4013b5:	83 f8 09             	cmp    $0x9,%eax
  4013b8:	76 eb                	jbe    4013a5 <scramble+0x16>
  4013ba:	8b 44 24 1c          	mov    0x1c(%rsp),%eax
  4013be:	69 c0 0d ef 00 00    	imul   $0xef0d,%eax,%eax
  4013c4:	89 44 24 1c          	mov    %eax,0x1c(%rsp)
  4013c8:	8b 44 24 04          	mov    0x4(%rsp),%eax
  4013cc:	69 c0 71 75 00 00    	imul   $0x7571,%eax,%eax
  4013d2:	89 44 24 04          	mov    %eax,0x4(%rsp)
  4013d6:	8b 44 24 0c          	mov    0xc(%rsp),%eax
  4013da:	69 c0 bf 82 00 00    	imul   $0x82bf,%eax,%eax
  4013e0:	89 44 24 0c          	mov    %eax,0xc(%rsp)
  4013e4:	8b 44 24 10          	mov    0x10(%rsp),%eax
  4013e8:	69 c0 1f 72 00 00    	imul   $0x721f,%eax,%eax
  4013ee:	89 44 24 10          	mov    %eax,0x10(%rsp)
  4013f2:	8b 44 24 18          	mov    0x18(%rsp),%eax
  4013f6:	69 c0 5a d9 00 00    	imul   $0xd95a,%eax,%eax
  4013fc:	89 44 24 18          	mov    %eax,0x18(%rsp)
  401400:	8b 44 24 24          	mov    0x24(%rsp),%eax
  401404:	69 c0 38 0c 00 00    	imul   $0xc38,%eax,%eax
  40140a:	89 44 24 24          	mov    %eax,0x24(%rsp)
  40140e:	8b 44 24 20          	mov    0x20(%rsp),%eax
  401412:	69 c0 bf f0 00 00    	imul   $0xf0bf,%eax,%eax
  401418:	89 44 24 20          	mov    %eax,0x20(%rsp)
  40141c:	8b 44 24 1c          	mov    0x1c(%rsp),%eax
  401420:	69 c0 1c d9 00 00    	imul   $0xd91c,%eax,%eax
  401426:	89 44 24 1c          	mov    %eax,0x1c(%rsp)
  40142a:	8b 44 24 1c          	mov    0x1c(%rsp),%eax
  40142e:	69 c0 f0 b4 00 00    	imul   $0xb4f0,%eax,%eax
  401434:	89 44 24 1c          	mov    %eax,0x1c(%rsp)
  401438:	8b 44 24 10          	mov    0x10(%rsp),%eax
  40143c:	69 c0 5d 11 00 00    	imul   $0x115d,%eax,%eax
  401442:	89 44 24 10          	mov    %eax,0x10(%rsp)
  401446:	8b 04 24             	mov    (%rsp),%eax
  401449:	69 c0 b4 07 00 00    	imul   $0x7b4,%eax,%eax
  40144f:	89 04 24             	mov    %eax,(%rsp)
  401452:	8b 44 24 20          	mov    0x20(%rsp),%eax
  401456:	69 c0 02 3c 00 00    	imul   $0x3c02,%eax,%eax
  40145c:	89 44 24 20          	mov    %eax,0x20(%rsp)
  401460:	8b 44 24 20          	mov    0x20(%rsp),%eax
  401464:	69 c0 80 a9 00 00    	imul   $0xa980,%eax,%eax
  40146a:	89 44 24 20          	mov    %eax,0x20(%rsp)
  40146e:	8b 44 24 18          	mov    0x18(%rsp),%eax
  401472:	69 c0 4e 6b 00 00    	imul   $0x6b4e,%eax,%eax
  401478:	89 44 24 18          	mov    %eax,0x18(%rsp)
  40147c:	8b 44 24 04          	mov    0x4(%rsp),%eax
  401480:	69 c0 d5 b4 00 00    	imul   $0xb4d5,%eax,%eax
  401486:	89 44 24 04          	mov    %eax,0x4(%rsp)
  40148a:	8b 44 24 1c          	mov    0x1c(%rsp),%eax
  40148e:	69 c0 d5 66 00 00    	imul   $0x66d5,%eax,%eax
  401494:	89 44 24 1c          	mov    %eax,0x1c(%rsp)
  401498:	8b 44 24 20          	mov    0x20(%rsp),%eax
  40149c:	69 c0 64 7b 00 00    	imul   $0x7b64,%eax,%eax
  4014a2:	89 44 24 20          	mov    %eax,0x20(%rsp)
  4014a6:	8b 44 24 20          	mov    0x20(%rsp),%eax
  4014aa:	69 c0 f6 36 00 00    	imul   $0x36f6,%eax,%eax
  4014b0:	89 44 24 20          	mov    %eax,0x20(%rsp)
  4014b4:	8b 04 24             	mov    (%rsp),%eax
  4014b7:	69 c0 eb 99 00 00    	imul   $0x99eb,%eax,%eax
  4014bd:	89 04 24             	mov    %eax,(%rsp)
  4014c0:	8b 44 24 14          	mov    0x14(%rsp),%eax
  4014c4:	69 c0 78 e9 00 00    	imul   $0xe978,%eax,%eax
  4014ca:	89 44 24 14          	mov    %eax,0x14(%rsp)
  4014ce:	8b 04 24             	mov    (%rsp),%eax
  4014d1:	69 c0 e6 7c 00 00    	imul   $0x7ce6,%eax,%eax
  4014d7:	89 04 24             	mov    %eax,(%rsp)
  4014da:	8b 44 24 10          	mov    0x10(%rsp),%eax
  4014de:	69 c0 ae 04 00 00    	imul   $0x4ae,%eax,%eax
  4014e4:	89 44 24 10          	mov    %eax,0x10(%rsp)
  4014e8:	8b 44 24 20          	mov    0x20(%rsp),%eax
  4014ec:	69 c0 ff ee 00 00    	imul   $0xeeff,%eax,%eax
  4014f2:	89 44 24 20          	mov    %eax,0x20(%rsp)
  4014f6:	8b 44 24 24          	mov    0x24(%rsp),%eax
  4014fa:	69 c0 47 ca 00 00    	imul   $0xca47,%eax,%eax
  401500:	89 44 24 24          	mov    %eax,0x24(%rsp)
  401504:	8b 44 24 20          	mov    0x20(%rsp),%eax
  401508:	69 c0 50 48 00 00    	imul   $0x4850,%eax,%eax
  40150e:	89 44 24 20          	mov    %eax,0x20(%rsp)
  401512:	8b 44 24 10          	mov    0x10(%rsp),%eax
  401516:	69 c0 9e db 00 00    	imul   $0xdb9e,%eax,%eax
  40151c:	89 44 24 10          	mov    %eax,0x10(%rsp)
  401520:	8b 04 24             	mov    (%rsp),%eax
  401523:	69 c0 27 b0 00 00    	imul   $0xb027,%eax,%eax
  401529:	89 04 24             	mov    %eax,(%rsp)
  40152c:	8b 44 24 1c          	mov    0x1c(%rsp),%eax
  401530:	69 c0 26 40 00 00    	imul   $0x4026,%eax,%eax
  401536:	89 44 24 1c          	mov    %eax,0x1c(%rsp)
  40153a:	8b 44 24 04          	mov    0x4(%rsp),%eax
  40153e:	69 c0 d9 ff 00 00    	imul   $0xffd9,%eax,%eax
  401544:	89 44 24 04          	mov    %eax,0x4(%rsp)
  401548:	8b 44 24 20          	mov    0x20(%rsp),%eax
  40154c:	69 c0 11 43 00 00    	imul   $0x4311,%eax,%eax
  401552:	89 44 24 20          	mov    %eax,0x20(%rsp)
  401556:	8b 44 24 08          	mov    0x8(%rsp),%eax
  40155a:	69 c0 52 bc 00 00    	imul   $0xbc52,%eax,%eax
  401560:	89 44 24 08          	mov    %eax,0x8(%rsp)
  401564:	8b 04 24             	mov    (%rsp),%eax
  401567:	69 c0 91 58 00 00    	imul   $0x5891,%eax,%eax
  40156d:	89 04 24             	mov    %eax,(%rsp)
  401570:	8b 44 24 18          	mov    0x18(%rsp),%eax
  401574:	69 c0 2c 86 00 00    	imul   $0x862c,%eax,%eax
  40157a:	89 44 24 18          	mov    %eax,0x18(%rsp)
  40157e:	8b 44 24 0c          	mov    0xc(%rsp),%eax
  401582:	69 c0 da 35 00 00    	imul   $0x35da,%eax,%eax
  401588:	89 44 24 0c          	mov    %eax,0xc(%rsp)
  40158c:	8b 44 24 14          	mov    0x14(%rsp),%eax
  401590:	69 c0 9e 38 00 00    	imul   $0x389e,%eax,%eax
  401596:	89 44 24 14          	mov    %eax,0x14(%rsp)
  40159a:	8b 44 24 10          	mov    0x10(%rsp),%eax
  40159e:	69 c0 5c 93 00 00    	imul   $0x935c,%eax,%eax
  4015a4:	89 44 24 10          	mov    %eax,0x10(%rsp)
  4015a8:	8b 44 24 1c          	mov    0x1c(%rsp),%eax
  4015ac:	69 c0 03 15 00 00    	imul   $0x1503,%eax,%eax
  4015b2:	89 44 24 1c          	mov    %eax,0x1c(%rsp)
  4015b6:	8b 44 24 20          	mov    0x20(%rsp),%eax
  4015ba:	69 c0 2a 23 00 00    	imul   $0x232a,%eax,%eax
  4015c0:	89 44 24 20          	mov    %eax,0x20(%rsp)
  4015c4:	8b 44 24 04          	mov    0x4(%rsp),%eax
  4015c8:	69 c0 d5 75 00 00    	imul   $0x75d5,%eax,%eax
  4015ce:	89 44 24 04          	mov    %eax,0x4(%rsp)
  4015d2:	8b 44 24 0c          	mov    0xc(%rsp),%eax
  4015d6:	69 c0 f2 a7 00 00    	imul   $0xa7f2,%eax,%eax
  4015dc:	89 44 24 0c          	mov    %eax,0xc(%rsp)
  4015e0:	8b 44 24 08          	mov    0x8(%rsp),%eax
  4015e4:	69 c0 16 c9 00 00    	imul   $0xc916,%eax,%eax
  4015ea:	89 44 24 08          	mov    %eax,0x8(%rsp)
  4015ee:	8b 44 24 0c          	mov    0xc(%rsp),%eax
  4015f2:	69 c0 29 0e 00 00    	imul   $0xe29,%eax,%eax
  4015f8:	89 44 24 0c          	mov    %eax,0xc(%rsp)
  4015fc:	8b 44 24 10          	mov    0x10(%rsp),%eax
  401600:	69 c0 30 9b 00 00    	imul   $0x9b30,%eax,%eax
  401606:	89 44 24 10          	mov    %eax,0x10(%rsp)
  40160a:	8b 44 24 0c          	mov    0xc(%rsp),%eax
  40160e:	69 c0 e4 d2 00 00    	imul   $0xd2e4,%eax,%eax
  401614:	89 44 24 0c          	mov    %eax,0xc(%rsp)
  401618:	8b 44 24 1c          	mov    0x1c(%rsp),%eax
  40161c:	69 c0 c5 f9 00 00    	imul   $0xf9c5,%eax,%eax
  401622:	89 44 24 1c          	mov    %eax,0x1c(%rsp)
  401626:	8b 44 24 24          	mov    0x24(%rsp),%eax
  40162a:	69 c0 b8 4f 00 00    	imul   $0x4fb8,%eax,%eax
  401630:	89 44 24 24          	mov    %eax,0x24(%rsp)
  401634:	8b 44 24 24          	mov    0x24(%rsp),%eax
  401638:	69 c0 db bf 00 00    	imul   $0xbfdb,%eax,%eax
  40163e:	89 44 24 24          	mov    %eax,0x24(%rsp)
  401642:	8b 44 24 04          	mov    0x4(%rsp),%eax
  401646:	69 c0 cd ed 00 00    	imul   $0xedcd,%eax,%eax
  40164c:	89 44 24 04          	mov    %eax,0x4(%rsp)
  401650:	8b 44 24 08          	mov    0x8(%rsp),%eax
  401654:	69 c0 d1 37 00 00    	imul   $0x37d1,%eax,%eax
  40165a:	89 44 24 08          	mov    %eax,0x8(%rsp)
  40165e:	8b 44 24 0c          	mov    0xc(%rsp),%eax
  401662:	69 c0 1e 66 00 00    	imul   $0x661e,%eax,%eax
  401668:	89 44 24 0c          	mov    %eax,0xc(%rsp)
  40166c:	8b 44 24 18          	mov    0x18(%rsp),%eax
  401670:	69 c0 fb 42 00 00    	imul   $0x42fb,%eax,%eax
  401676:	89 44 24 18          	mov    %eax,0x18(%rsp)
  40167a:	8b 44 24 18          	mov    0x18(%rsp),%eax
  40167e:	69 c0 f4 25 00 00    	imul   $0x25f4,%eax,%eax
  401684:	89 44 24 18          	mov    %eax,0x18(%rsp)
  401688:	8b 44 24 18          	mov    0x18(%rsp),%eax
  40168c:	69 c0 85 91 00 00    	imul   $0x9185,%eax,%eax
  401692:	89 44 24 18          	mov    %eax,0x18(%rsp)
  401696:	8b 44 24 0c          	mov    0xc(%rsp),%eax
  40169a:	69 c0 01 5c 00 00    	imul   $0x5c01,%eax,%eax
  4016a0:	89 44 24 0c          	mov    %eax,0xc(%rsp)
  4016a4:	8b 44 24 0c          	mov    0xc(%rsp),%eax
  4016a8:	69 c0 90 36 00 00    	imul   $0x3690,%eax,%eax
  4016ae:	89 44 24 0c          	mov    %eax,0xc(%rsp)
  4016b2:	8b 44 24 10          	mov    0x10(%rsp),%eax
  4016b6:	69 c0 80 c5 00 00    	imul   $0xc580,%eax,%eax
  4016bc:	89 44 24 10          	mov    %eax,0x10(%rsp)
  4016c0:	8b 44 24 20          	mov    0x20(%rsp),%eax
  4016c4:	69 c0 83 87 00 00    	imul   $0x8783,%eax,%eax
  4016ca:	89 44 24 20          	mov    %eax,0x20(%rsp)
  4016ce:	8b 44 24 04          	mov    0x4(%rsp),%eax
  4016d2:	69 c0 e3 78 00 00    	imul   $0x78e3,%eax,%eax
  4016d8:	89 44 24 04          	mov    %eax,0x4(%rsp)
  4016dc:	8b 44 24 24          	mov    0x24(%rsp),%eax
  4016e0:	69 c0 fa 21 00 00    	imul   $0x21fa,%eax,%eax
  4016e6:	89 44 24 24          	mov    %eax,0x24(%rsp)
  4016ea:	8b 44 24 04          	mov    0x4(%rsp),%eax
  4016ee:	69 c0 bd bd 00 00    	imul   $0xbdbd,%eax,%eax
  4016f4:	89 44 24 04          	mov    %eax,0x4(%rsp)
  4016f8:	8b 44 24 04          	mov    0x4(%rsp),%eax
  4016fc:	69 c0 bc 61 00 00    	imul   $0x61bc,%eax,%eax
  401702:	89 44 24 04          	mov    %eax,0x4(%rsp)
  401706:	8b 44 24 1c          	mov    0x1c(%rsp),%eax
  40170a:	69 c0 d6 d1 00 00    	imul   $0xd1d6,%eax,%eax
  401710:	89 44 24 1c          	mov    %eax,0x1c(%rsp)
  401714:	8b 44 24 04          	mov    0x4(%rsp),%eax
  401718:	69 c0 be b5 00 00    	imul   $0xb5be,%eax,%eax
  40171e:	89 44 24 04          	mov    %eax,0x4(%rsp)
  401722:	8b 44 24 20          	mov    0x20(%rsp),%eax
  401726:	69 c0 9e 67 00 00    	imul   $0x679e,%eax,%eax
  40172c:	89 44 24 20          	mov    %eax,0x20(%rsp)
  401730:	8b 44 24 18          	mov    0x18(%rsp),%eax
  401734:	69 c0 4b e3 00 00    	imul   $0xe34b,%eax,%eax
  40173a:	89 44 24 18          	mov    %eax,0x18(%rsp)
  40173e:	8b 44 24 08          	mov    0x8(%rsp),%eax
  401742:	69 c0 ff 5d 00 00    	imul   $0x5dff,%eax,%eax
  401748:	89 44 24 08          	mov    %eax,0x8(%rsp)
  40174c:	8b 44 24 04          	mov    0x4(%rsp),%eax
  401750:	69 c0 36 c7 00 00    	imul   $0xc736,%eax,%eax
  401756:	89 44 24 04          	mov    %eax,0x4(%rsp)
  40175a:	8b 04 24             	mov    (%rsp),%eax
  40175d:	69 c0 45 7e 00 00    	imul   $0x7e45,%eax,%eax
  401763:	89 04 24             	mov    %eax,(%rsp)
  401766:	8b 44 24 18          	mov    0x18(%rsp),%eax
  40176a:	69 c0 12 cd 00 00    	imul   $0xcd12,%eax,%eax
  401770:	89 44 24 18          	mov    %eax,0x18(%rsp)
  401774:	8b 04 24             	mov    (%rsp),%eax
  401777:	69 c0 17 60 00 00    	imul   $0x6017,%eax,%eax
  40177d:	89 04 24             	mov    %eax,(%rsp)
  401780:	8b 44 24 04          	mov    0x4(%rsp),%eax
  401784:	69 c0 39 de 00 00    	imul   $0xde39,%eax,%eax
  40178a:	89 44 24 04          	mov    %eax,0x4(%rsp)
  40178e:	8b 04 24             	mov    (%rsp),%eax
  401791:	69 c0 48 03 00 00    	imul   $0x348,%eax,%eax
  401797:	89 04 24             	mov    %eax,(%rsp)
  40179a:	8b 44 24 04          	mov    0x4(%rsp),%eax
  40179e:	69 c0 41 f9 00 00    	imul   $0xf941,%eax,%eax
  4017a4:	89 44 24 04          	mov    %eax,0x4(%rsp)
  4017a8:	ba 00 00 00 00       	mov    $0x0,%edx
  4017ad:	b8 00 00 00 00       	mov    $0x0,%eax
  4017b2:	eb 0a                	jmp    4017be <scramble+0x42f>
  4017b4:	89 d1                	mov    %edx,%ecx
  4017b6:	8b 0c 8c             	mov    (%rsp,%rcx,4),%ecx
  4017b9:	01 c8                	add    %ecx,%eax
  4017bb:	83 c2 01             	add    $0x1,%edx
  4017be:	83 fa 09             	cmp    $0x9,%edx
  4017c1:	76 f1                	jbe    4017b4 <scramble+0x425>
  4017c3:	48 8b 74 24 28       	mov    0x28(%rsp),%rsi
  4017c8:	64 48 33 34 25 28 00 	xor    %fs:0x28,%rsi
  4017cf:	00 00 
  4017d1:	74 05                	je     4017d8 <scramble+0x449>
  4017d3:	e8 18 f5 ff ff       	callq  400cf0 <__stack_chk_fail@plt>
  4017d8:	48 83 c4 38          	add    $0x38,%rsp
  4017dc:	c3                   	retq   

00000000004017dd <getbuf>:
  4017dd:	48 83 ec 28          	sub    $0x28,%rsp
  4017e1:	48 89 e7             	mov    %rsp,%rdi
  4017e4:	e8 9f 03 00 00       	callq  401b88 <Gets>
  4017e9:	b8 01 00 00 00       	mov    $0x1,%eax
  4017ee:	48 83 c4 28          	add    $0x28,%rsp
  4017f2:	c3                   	retq   

00000000004017f3 <touch1>:
  4017f3:	48 83 ec 08          	sub    $0x8,%rsp
  4017f7:	c7 05 1b 3d 20 00 01 	movl   $0x1,0x203d1b(%rip)        # 60551c <vlevel>
  4017fe:	00 00 00 
  401801:	bf 8b 33 40 00       	mov    $0x40338b,%edi
  401806:	e8 c5 f4 ff ff       	callq  400cd0 <puts@plt>
  40180b:	bf 01 00 00 00       	mov    $0x1,%edi
  401810:	e8 b8 05 00 00       	callq  401dcd <validate>
  401815:	bf 00 00 00 00       	mov    $0x0,%edi
  40181a:	e8 31 f6 ff ff       	callq  400e50 <exit@plt>

000000000040181f <touch2>:
  40181f:	48 83 ec 08          	sub    $0x8,%rsp
  401823:	89 fa                	mov    %edi,%edx
  401825:	c7 05 ed 3c 20 00 02 	movl   $0x2,0x203ced(%rip)        # 60551c <vlevel>
  40182c:	00 00 00 
  40182f:	39 3d ef 3c 20 00    	cmp    %edi,0x203cef(%rip)        # 605524 <cookie>
  401835:	75 20                	jne    401857 <touch2+0x38>
  401837:	be b0 33 40 00       	mov    $0x4033b0,%esi
  40183c:	bf 01 00 00 00       	mov    $0x1,%edi
  401841:	b8 00 00 00 00       	mov    $0x0,%eax
  401846:	e8 b5 f5 ff ff       	callq  400e00 <__printf_chk@plt>
  40184b:	bf 02 00 00 00       	mov    $0x2,%edi
  401850:	e8 78 05 00 00       	callq  401dcd <validate>
  401855:	eb 1e                	jmp    401875 <touch2+0x56>
  401857:	be d8 33 40 00       	mov    $0x4033d8,%esi
  40185c:	bf 01 00 00 00       	mov    $0x1,%edi
  401861:	b8 00 00 00 00       	mov    $0x0,%eax
  401866:	e8 95 f5 ff ff       	callq  400e00 <__printf_chk@plt>
  40186b:	bf 02 00 00 00       	mov    $0x2,%edi
  401870:	e8 34 06 00 00       	callq  401ea9 <fail>
  401875:	bf 00 00 00 00       	mov    $0x0,%edi
  40187a:	e8 d1 f5 ff ff       	callq  400e50 <exit@plt>

000000000040187f <hexmatch>:
  40187f:	41 54                	push   %r12
  401881:	55                   	push   %rbp
  401882:	53                   	push   %rbx
  401883:	48 83 c4 80          	add    $0xffffffffffffff80,%rsp
  401887:	89 fd                	mov    %edi,%ebp
  401889:	48 89 f3             	mov    %rsi,%rbx
  40188c:	64 48 8b 04 25 28 00 	mov    %fs:0x28,%rax
  401893:	00 00 
  401895:	48 89 44 24 78       	mov    %rax,0x78(%rsp)
  40189a:	31 c0                	xor    %eax,%eax
  40189c:	e8 1f f5 ff ff       	callq  400dc0 <random@plt>
  4018a1:	48 89 c1             	mov    %rax,%rcx
  4018a4:	48 ba 0b d7 a3 70 3d 	movabs $0xa3d70a3d70a3d70b,%rdx
  4018ab:	0a d7 a3 
  4018ae:	48 f7 ea             	imul   %rdx
  4018b1:	48 01 ca             	add    %rcx,%rdx
  4018b4:	48 c1 fa 06          	sar    $0x6,%rdx
  4018b8:	48 89 c8             	mov    %rcx,%rax
  4018bb:	48 c1 f8 3f          	sar    $0x3f,%rax
  4018bf:	48 29 c2             	sub    %rax,%rdx
  4018c2:	48 8d 04 92          	lea    (%rdx,%rdx,4),%rax
  4018c6:	48 8d 14 80          	lea    (%rax,%rax,4),%rdx
  4018ca:	48 8d 04 95 00 00 00 	lea    0x0(,%rdx,4),%rax
  4018d1:	00 
  4018d2:	48 29 c1             	sub    %rax,%rcx
  4018d5:	4c 8d 24 0c          	lea    (%rsp,%rcx,1),%r12
  4018d9:	41 89 e8             	mov    %ebp,%r8d
  4018dc:	b9 a8 33 40 00       	mov    $0x4033a8,%ecx
  4018e1:	48 c7 c2 ff ff ff ff 	mov    $0xffffffffffffffff,%rdx
  4018e8:	be 01 00 00 00       	mov    $0x1,%esi
  4018ed:	4c 89 e7             	mov    %r12,%rdi
  4018f0:	b8 00 00 00 00       	mov    $0x0,%eax
  4018f5:	e8 86 f5 ff ff       	callq  400e80 <__sprintf_chk@plt>
  4018fa:	ba 09 00 00 00       	mov    $0x9,%edx
  4018ff:	4c 89 e6             	mov    %r12,%rsi
  401902:	48 89 df             	mov    %rbx,%rdi
  401905:	e8 a6 f3 ff ff       	callq  400cb0 <strncmp@plt>
  40190a:	85 c0                	test   %eax,%eax
  40190c:	0f 94 c0             	sete   %al
  40190f:	48 8b 5c 24 78       	mov    0x78(%rsp),%rbx
  401914:	64 48 33 1c 25 28 00 	xor    %fs:0x28,%rbx
  40191b:	00 00 
  40191d:	74 05                	je     401924 <hexmatch+0xa5>
  40191f:	e8 cc f3 ff ff       	callq  400cf0 <__stack_chk_fail@plt>
  401924:	0f b6 c0             	movzbl %al,%eax
  401927:	48 83 ec 80          	sub    $0xffffffffffffff80,%rsp
  40192b:	5b                   	pop    %rbx
  40192c:	5d                   	pop    %rbp
  40192d:	41 5c                	pop    %r12
  40192f:	c3                   	retq   

0000000000401930 <touch3>:
  401930:	53                   	push   %rbx
  401931:	48 89 fb             	mov    %rdi,%rbx
  401934:	c7 05 de 3b 20 00 03 	movl   $0x3,0x203bde(%rip)        # 60551c <vlevel>
  40193b:	00 00 00 
  40193e:	48 89 fe             	mov    %rdi,%rsi
  401941:	8b 3d dd 3b 20 00    	mov    0x203bdd(%rip),%edi        # 605524 <cookie>
  401947:	e8 33 ff ff ff       	callq  40187f <hexmatch>
  40194c:	85 c0                	test   %eax,%eax
  40194e:	74 23                	je     401973 <touch3+0x43>
  401950:	48 89 da             	mov    %rbx,%rdx
  401953:	be 00 34 40 00       	mov    $0x403400,%esi
  401958:	bf 01 00 00 00       	mov    $0x1,%edi
  40195d:	b8 00 00 00 00       	mov    $0x0,%eax
  401962:	e8 99 f4 ff ff       	callq  400e00 <__printf_chk@plt>
  401967:	bf 03 00 00 00       	mov    $0x3,%edi
  40196c:	e8 5c 04 00 00       	callq  401dcd <validate>
  401971:	eb 21                	jmp    401994 <touch3+0x64>
  401973:	48 89 da             	mov    %rbx,%rdx
  401976:	be 28 34 40 00       	mov    $0x403428,%esi
  40197b:	bf 01 00 00 00       	mov    $0x1,%edi
  401980:	b8 00 00 00 00       	mov    $0x0,%eax
  401985:	e8 76 f4 ff ff       	callq  400e00 <__printf_chk@plt>
  40198a:	bf 03 00 00 00       	mov    $0x3,%edi
  40198f:	e8 15 05 00 00       	callq  401ea9 <fail>
  401994:	bf 00 00 00 00       	mov    $0x0,%edi
  401999:	e8 b2 f4 ff ff       	callq  400e50 <exit@plt>

000000000040199e <test>:
  40199e:	48 83 ec 08          	sub    $0x8,%rsp
  4019a2:	b8 00 00 00 00       	mov    $0x0,%eax
  4019a7:	e8 31 fe ff ff       	callq  4017dd <getbuf>
  4019ac:	89 c2                	mov    %eax,%edx
  4019ae:	be 50 34 40 00       	mov    $0x403450,%esi
  4019b3:	bf 01 00 00 00       	mov    $0x1,%edi
  4019b8:	b8 00 00 00 00       	mov    $0x0,%eax
  4019bd:	e8 3e f4 ff ff       	callq  400e00 <__printf_chk@plt>
  4019c2:	48 83 c4 08          	add    $0x8,%rsp
  4019c6:	c3                   	retq   

00000000004019c7 <start_farm>:
  4019c7:	b8 01 00 00 00       	mov    $0x1,%eax
  4019cc:	c3                   	retq   

00000000004019cd <getval_210>:
  4019cd:	b8 58 90 c3 0d       	mov    $0xdc39058,%eax
  4019d2:	c3                   	retq   

00000000004019d3 <getval_438>:
  4019d3:	b8 48 89 c7 90       	mov    $0x90c78948,%eax
  4019d8:	c3                   	retq   

00000000004019d9 <addval_154>:
  4019d9:	8d 87 48 99 c7 c3    	lea    -0x3c3866b8(%rdi),%eax
  4019df:	c3                   	retq   

00000000004019e0 <getval_349>:
  4019e0:	b8 a9 c1 58 92       	mov    $0x9258c1a9,%eax
  4019e5:	c3                   	retq   

00000000004019e6 <getval_118>:
  4019e6:	b8 48 89 c7 c3       	mov    $0xc3c78948,%eax
  4019eb:	c3                   	retq   

00000000004019ec <setval_421>:
  4019ec:	c7 07 58 90 90 c3    	movl   $0xc3909058,(%rdi)
  4019f2:	c3                   	retq   

00000000004019f3 <setval_170>:
  4019f3:	c7 07 48 90 90 c3    	movl   $0xc3909048,(%rdi)
  4019f9:	c3                   	retq   

00000000004019fa <getval_223>:
  4019fa:	b8 4a 89 c7 c3       	mov    $0xc3c7894a,%eax
  4019ff:	c3                   	retq   

0000000000401a00 <mid_farm>:
  401a00:	b8 01 00 00 00       	mov    $0x1,%eax
  401a05:	c3                   	retq   

0000000000401a06 <add_xy>:
  401a06:	48 8d 04 37          	lea    (%rdi,%rsi,1),%rax
  401a0a:	c3                   	retq   

0000000000401a0b <addval_296>:
  401a0b:	8d 87 c9 c2 38 db    	lea    -0x24c73d37(%rdi),%eax
  401a11:	c3                   	retq   

0000000000401a12 <setval_406>:
  401a12:	c7 07 89 ce 90 c3    	movl   $0xc390ce89,(%rdi)
  401a18:	c3                   	retq   

0000000000401a19 <setval_478>:
  401a19:	c7 07 09 ce 84 c0    	movl   $0xc084ce09,(%rdi)
  401a1f:	c3                   	retq   

0000000000401a20 <getval_371>:
  401a20:	b8 48 89 e0 91       	mov    $0x91e08948,%eax
  401a25:	c3                   	retq   

0000000000401a26 <getval_474>:
  401a26:	b8 48 89 e0 91       	mov    $0x91e08948,%eax
  401a2b:	c3                   	retq   

0000000000401a2c <getval_111>:
  401a2c:	b8 48 89 e0 94       	mov    $0x94e08948,%eax
  401a31:	c3                   	retq   

0000000000401a32 <addval_357>:
  401a32:	8d 87 8d d1 08 d2    	lea    -0x2df72e73(%rdi),%eax
  401a38:	c3                   	retq   

0000000000401a39 <getval_383>:
  401a39:	b8 8d c2 90 90       	mov    $0x9090c28d,%eax
  401a3e:	c3                   	retq   

0000000000401a3f <addval_240>:
  401a3f:	8d 87 09 d1 20 c9    	lea    -0x36df2ef7(%rdi),%eax
  401a45:	c3                   	retq   

0000000000401a46 <addval_103>:
  401a46:	8d 87 89 c2 20 c0    	lea    -0x3fdf3d77(%rdi),%eax
  401a4c:	c3                   	retq   

0000000000401a4d <setval_165>:
  401a4d:	c7 07 48 89 e0 c3    	movl   $0xc3e08948,(%rdi)
  401a53:	c3                   	retq   

0000000000401a54 <getval_405>:
  401a54:	b8 89 ce a4 db       	mov    $0xdba4ce89,%eax
  401a59:	c3                   	retq   

0000000000401a5a <setval_326>:
  401a5a:	c7 07 9d 48 89 e0    	movl   $0xe089489d,(%rdi)
  401a60:	c3                   	retq   

0000000000401a61 <setval_173>:
  401a61:	c7 07 89 ce 30 db    	movl   $0xdb30ce89,(%rdi)
  401a67:	c3                   	retq   

0000000000401a68 <setval_316>:
  401a68:	c7 07 48 89 e0 c1    	movl   $0xc1e08948,(%rdi)
  401a6e:	c3                   	retq   

0000000000401a6f <addval_334>:
  401a6f:	8d 87 09 ce 08 db    	lea    -0x24f731f7(%rdi),%eax
  401a75:	c3                   	retq   

0000000000401a76 <getval_310>:
  401a76:	b8 89 ce 08 db       	mov    $0xdb08ce89,%eax
  401a7b:	c3                   	retq   

0000000000401a7c <getval_333>:
  401a7c:	b8 89 d1 30 c0       	mov    $0xc030d189,%eax
  401a81:	c3                   	retq   

0000000000401a82 <setval_306>:
  401a82:	c7 07 c9 d1 38 c9    	movl   $0xc938d1c9,(%rdi)
  401a88:	c3                   	retq   

0000000000401a89 <addval_257>:
  401a89:	8d 87 b1 c9 c2 c3    	lea    -0x3c3d364f(%rdi),%eax
  401a8f:	c3                   	retq   

0000000000401a90 <setval_379>:
  401a90:	c7 07 81 d1 38 d2    	movl   $0xd238d181,(%rdi)
  401a96:	c3                   	retq   

0000000000401a97 <setval_190>:
  401a97:	c7 07 48 89 e0 c7    	movl   $0xc7e08948,(%rdi)
  401a9d:	c3                   	retq   

0000000000401a9e <addval_444>:
  401a9e:	8d 87 89 c2 c4 c0    	lea    -0x3f3b3d77(%rdi),%eax
  401aa4:	c3                   	retq   

0000000000401aa5 <setval_341>:
  401aa5:	c7 07 89 c2 c3 10    	movl   $0x10c3c289,(%rdi)
  401aab:	c3                   	retq   

0000000000401aac <addval_318>:
  401aac:	8d 87 71 e2 8b c2    	lea    -0x3d741d8f(%rdi),%eax
  401ab2:	c3                   	retq   

0000000000401ab3 <getval_225>:
  401ab3:	b8 89 d1 48 c9       	mov    $0xc948d189,%eax
  401ab8:	c3                   	retq   

0000000000401ab9 <setval_347>:
  401ab9:	c7 07 99 ce 08 db    	movl   $0xdb08ce99,(%rdi)
  401abf:	c3                   	retq   

0000000000401ac0 <addval_219>:
  401ac0:	8d 87 89 ce 28 db    	lea    -0x24d73177(%rdi),%eax
  401ac6:	c3                   	retq   

0000000000401ac7 <setval_166>:
  401ac7:	c7 07 89 d1 20 c0    	movl   $0xc020d189,(%rdi)
  401acd:	c3                   	retq   

0000000000401ace <setval_461>:
  401ace:	c7 07 89 c2 30 c0    	movl   $0xc030c289,(%rdi)
  401ad4:	c3                   	retq   

0000000000401ad5 <getval_462>:
  401ad5:	b8 48 89 e0 c1       	mov    $0xc1e08948,%eax
  401ada:	c3                   	retq   

0000000000401adb <addval_299>:
  401adb:	8d 87 89 d1 84 d2    	lea    -0x2d7b2e77(%rdi),%eax
  401ae1:	c3                   	retq   

0000000000401ae2 <end_farm>:
  401ae2:	b8 01 00 00 00       	mov    $0x1,%eax
  401ae7:	c3                   	retq   

0000000000401ae8 <save_char>:
  401ae8:	8b 05 56 46 20 00    	mov    0x204656(%rip),%eax        # 606144 <gets_cnt>
  401aee:	3d ff 03 00 00       	cmp    $0x3ff,%eax
  401af3:	7f 49                	jg     401b3e <save_char+0x56>
  401af5:	8d 14 40             	lea    (%rax,%rax,2),%edx
  401af8:	89 f9                	mov    %edi,%ecx
  401afa:	c0 e9 04             	shr    $0x4,%cl
  401afd:	83 e1 0f             	and    $0xf,%ecx
  401b00:	0f b6 b1 70 37 40 00 	movzbl 0x403770(%rcx),%esi
  401b07:	48 63 ca             	movslq %edx,%rcx
  401b0a:	40 88 b1 40 55 60 00 	mov    %sil,0x605540(%rcx)
  401b11:	8d 4a 01             	lea    0x1(%rdx),%ecx
  401b14:	83 e7 0f             	and    $0xf,%edi
  401b17:	0f b6 b7 70 37 40 00 	movzbl 0x403770(%rdi),%esi
  401b1e:	48 63 c9             	movslq %ecx,%rcx
  401b21:	40 88 b1 40 55 60 00 	mov    %sil,0x605540(%rcx)
  401b28:	83 c2 02             	add    $0x2,%edx
  401b2b:	48 63 d2             	movslq %edx,%rdx
  401b2e:	c6 82 40 55 60 00 20 	movb   $0x20,0x605540(%rdx)
  401b35:	83 c0 01             	add    $0x1,%eax
  401b38:	89 05 06 46 20 00    	mov    %eax,0x204606(%rip)        # 606144 <gets_cnt>
  401b3e:	f3 c3                	repz retq 

0000000000401b40 <save_term>:
  401b40:	8b 05 fe 45 20 00    	mov    0x2045fe(%rip),%eax        # 606144 <gets_cnt>
  401b46:	8d 04 40             	lea    (%rax,%rax,2),%eax
  401b49:	48 98                	cltq   
  401b4b:	c6 80 40 55 60 00 00 	movb   $0x0,0x605540(%rax)
  401b52:	c3                   	retq   

0000000000401b53 <check_fail>:
  401b53:	48 83 ec 08          	sub    $0x8,%rsp
  401b57:	0f be 15 ea 45 20 00 	movsbl 0x2045ea(%rip),%edx        # 606148 <target_prefix>
  401b5e:	41 b8 40 55 60 00    	mov    $0x605540,%r8d
  401b64:	8b 0d ae 39 20 00    	mov    0x2039ae(%rip),%ecx        # 605518 <check_level>
  401b6a:	be 73 34 40 00       	mov    $0x403473,%esi
  401b6f:	bf 01 00 00 00       	mov    $0x1,%edi
  401b74:	b8 00 00 00 00       	mov    $0x0,%eax
  401b79:	e8 82 f2 ff ff       	callq  400e00 <__printf_chk@plt>
  401b7e:	bf 01 00 00 00       	mov    $0x1,%edi
  401b83:	e8 c8 f2 ff ff       	callq  400e50 <exit@plt>

0000000000401b88 <Gets>:
  401b88:	41 54                	push   %r12
  401b8a:	55                   	push   %rbp
  401b8b:	53                   	push   %rbx
  401b8c:	49 89 fc             	mov    %rdi,%r12
  401b8f:	c7 05 ab 45 20 00 00 	movl   $0x0,0x2045ab(%rip)        # 606144 <gets_cnt>
  401b96:	00 00 00 
  401b99:	48 89 fb             	mov    %rdi,%rbx
  401b9c:	eb 11                	jmp    401baf <Gets+0x27>
  401b9e:	48 8d 6b 01          	lea    0x1(%rbx),%rbp
  401ba2:	88 03                	mov    %al,(%rbx)
  401ba4:	0f b6 f8             	movzbl %al,%edi
  401ba7:	e8 3c ff ff ff       	callq  401ae8 <save_char>
  401bac:	48 89 eb             	mov    %rbp,%rbx
  401baf:	48 8b 3d 5a 39 20 00 	mov    0x20395a(%rip),%rdi        # 605510 <infile>
  401bb6:	e8 15 f2 ff ff       	callq  400dd0 <_IO_getc@plt>
  401bbb:	83 f8 ff             	cmp    $0xffffffff,%eax
  401bbe:	74 05                	je     401bc5 <Gets+0x3d>
  401bc0:	83 f8 0a             	cmp    $0xa,%eax
  401bc3:	75 d9                	jne    401b9e <Gets+0x16>
  401bc5:	c6 03 00             	movb   $0x0,(%rbx)
  401bc8:	b8 00 00 00 00       	mov    $0x0,%eax
  401bcd:	e8 6e ff ff ff       	callq  401b40 <save_term>
  401bd2:	4c 89 e0             	mov    %r12,%rax
  401bd5:	5b                   	pop    %rbx
  401bd6:	5d                   	pop    %rbp
  401bd7:	41 5c                	pop    %r12
  401bd9:	c3                   	retq   

0000000000401bda <notify_server>:
  401bda:	53                   	push   %rbx
  401bdb:	48 81 ec 10 40 00 00 	sub    $0x4010,%rsp
  401be2:	64 48 8b 04 25 28 00 	mov    %fs:0x28,%rax
  401be9:	00 00 
  401beb:	48 89 84 24 08 40 00 	mov    %rax,0x4008(%rsp)
  401bf2:	00 
  401bf3:	31 c0                	xor    %eax,%eax
  401bf5:	83 3d 2c 39 20 00 00 	cmpl   $0x0,0x20392c(%rip)        # 605528 <is_checker>
  401bfc:	0f 85 aa 01 00 00    	jne    401dac <notify_server+0x1d2>
  401c02:	89 fb                	mov    %edi,%ebx
  401c04:	8b 05 3a 45 20 00    	mov    0x20453a(%rip),%eax        # 606144 <gets_cnt>
  401c0a:	83 c0 64             	add    $0x64,%eax
  401c0d:	3d 00 20 00 00       	cmp    $0x2000,%eax
  401c12:	7e 1e                	jle    401c32 <notify_server+0x58>
  401c14:	be a8 35 40 00       	mov    $0x4035a8,%esi
  401c19:	bf 01 00 00 00       	mov    $0x1,%edi
  401c1e:	b8 00 00 00 00       	mov    $0x0,%eax
  401c23:	e8 d8 f1 ff ff       	callq  400e00 <__printf_chk@plt>
  401c28:	bf 01 00 00 00       	mov    $0x1,%edi
  401c2d:	e8 1e f2 ff ff       	callq  400e50 <exit@plt>
  401c32:	0f be 05 0f 45 20 00 	movsbl 0x20450f(%rip),%eax        # 606148 <target_prefix>
  401c39:	83 3d 68 38 20 00 00 	cmpl   $0x0,0x203868(%rip)        # 6054a8 <notify>
  401c40:	74 08                	je     401c4a <notify_server+0x70>
  401c42:	8b 15 d8 38 20 00    	mov    0x2038d8(%rip),%edx        # 605520 <authkey>
  401c48:	eb 05                	jmp    401c4f <notify_server+0x75>
  401c4a:	ba ff ff ff ff       	mov    $0xffffffff,%edx
  401c4f:	85 db                	test   %ebx,%ebx
  401c51:	74 08                	je     401c5b <notify_server+0x81>
  401c53:	41 b9 89 34 40 00    	mov    $0x403489,%r9d
  401c59:	eb 06                	jmp    401c61 <notify_server+0x87>
  401c5b:	41 b9 8e 34 40 00    	mov    $0x40348e,%r9d
  401c61:	68 40 55 60 00       	pushq  $0x605540
  401c66:	56                   	push   %rsi
  401c67:	50                   	push   %rax
  401c68:	52                   	push   %rdx
  401c69:	44 8b 05 f8 34 20 00 	mov    0x2034f8(%rip),%r8d        # 605168 <target_id>
  401c70:	b9 93 34 40 00       	mov    $0x403493,%ecx
  401c75:	ba 00 20 00 00       	mov    $0x2000,%edx
  401c7a:	be 01 00 00 00       	mov    $0x1,%esi
  401c7f:	48 8d 7c 24 20       	lea    0x20(%rsp),%rdi
  401c84:	b8 00 00 00 00       	mov    $0x0,%eax
  401c89:	e8 f2 f1 ff ff       	callq  400e80 <__sprintf_chk@plt>
  401c8e:	48 83 c4 20          	add    $0x20,%rsp
  401c92:	83 3d 0f 38 20 00 00 	cmpl   $0x0,0x20380f(%rip)        # 6054a8 <notify>
  401c99:	0f 84 81 00 00 00    	je     401d20 <notify_server+0x146>
  401c9f:	85 db                	test   %ebx,%ebx
  401ca1:	74 6e                	je     401d11 <notify_server+0x137>
  401ca3:	4c 8d 8c 24 00 20 00 	lea    0x2000(%rsp),%r9
  401caa:	00 
  401cab:	41 b8 00 00 00 00    	mov    $0x0,%r8d
  401cb1:	48 89 e1             	mov    %rsp,%rcx
  401cb4:	48 8b 15 b5 34 20 00 	mov    0x2034b5(%rip),%rdx        # 605170 <lab>
  401cbb:	48 8b 35 b6 34 20 00 	mov    0x2034b6(%rip),%rsi        # 605178 <course>
  401cc2:	48 8b 3d 97 34 20 00 	mov    0x203497(%rip),%rdi        # 605160 <user_id>
  401cc9:	e8 09 11 00 00       	callq  402dd7 <driver_post>
  401cce:	85 c0                	test   %eax,%eax
  401cd0:	79 26                	jns    401cf8 <notify_server+0x11e>
  401cd2:	48 8d 94 24 00 20 00 	lea    0x2000(%rsp),%rdx
  401cd9:	00 
  401cda:	be af 34 40 00       	mov    $0x4034af,%esi
  401cdf:	bf 01 00 00 00       	mov    $0x1,%edi
  401ce4:	b8 00 00 00 00       	mov    $0x0,%eax
  401ce9:	e8 12 f1 ff ff       	callq  400e00 <__printf_chk@plt>
  401cee:	bf 01 00 00 00       	mov    $0x1,%edi
  401cf3:	e8 58 f1 ff ff       	callq  400e50 <exit@plt>
  401cf8:	bf d8 35 40 00       	mov    $0x4035d8,%edi
  401cfd:	e8 ce ef ff ff       	callq  400cd0 <puts@plt>
  401d02:	bf bb 34 40 00       	mov    $0x4034bb,%edi
  401d07:	e8 c4 ef ff ff       	callq  400cd0 <puts@plt>
  401d0c:	e9 9b 00 00 00       	jmpq   401dac <notify_server+0x1d2>
  401d11:	bf c5 34 40 00       	mov    $0x4034c5,%edi
  401d16:	e8 b5 ef ff ff       	callq  400cd0 <puts@plt>
  401d1b:	e9 8c 00 00 00       	jmpq   401dac <notify_server+0x1d2>
  401d20:	85 db                	test   %ebx,%ebx
  401d22:	74 07                	je     401d2b <notify_server+0x151>
  401d24:	ba 89 34 40 00       	mov    $0x403489,%edx
  401d29:	eb 05                	jmp    401d30 <notify_server+0x156>
  401d2b:	ba 8e 34 40 00       	mov    $0x40348e,%edx
  401d30:	be 10 36 40 00       	mov    $0x403610,%esi
  401d35:	bf 01 00 00 00       	mov    $0x1,%edi
  401d3a:	b8 00 00 00 00       	mov    $0x0,%eax
  401d3f:	e8 bc f0 ff ff       	callq  400e00 <__printf_chk@plt>
  401d44:	48 8b 15 15 34 20 00 	mov    0x203415(%rip),%rdx        # 605160 <user_id>
  401d4b:	be cc 34 40 00       	mov    $0x4034cc,%esi
  401d50:	bf 01 00 00 00       	mov    $0x1,%edi
  401d55:	b8 00 00 00 00       	mov    $0x0,%eax
  401d5a:	e8 a1 f0 ff ff       	callq  400e00 <__printf_chk@plt>
  401d5f:	48 8b 15 12 34 20 00 	mov    0x203412(%rip),%rdx        # 605178 <course>
  401d66:	be d9 34 40 00       	mov    $0x4034d9,%esi
  401d6b:	bf 01 00 00 00       	mov    $0x1,%edi
  401d70:	b8 00 00 00 00       	mov    $0x0,%eax
  401d75:	e8 86 f0 ff ff       	callq  400e00 <__printf_chk@plt>
  401d7a:	48 8b 15 ef 33 20 00 	mov    0x2033ef(%rip),%rdx        # 605170 <lab>
  401d81:	be e5 34 40 00       	mov    $0x4034e5,%esi
  401d86:	bf 01 00 00 00       	mov    $0x1,%edi
  401d8b:	b8 00 00 00 00       	mov    $0x0,%eax
  401d90:	e8 6b f0 ff ff       	callq  400e00 <__printf_chk@plt>
  401d95:	48 89 e2             	mov    %rsp,%rdx
  401d98:	be ee 34 40 00       	mov    $0x4034ee,%esi
  401d9d:	bf 01 00 00 00       	mov    $0x1,%edi
  401da2:	b8 00 00 00 00       	mov    $0x0,%eax
  401da7:	e8 54 f0 ff ff       	callq  400e00 <__printf_chk@plt>
  401dac:	48 8b 84 24 08 40 00 	mov    0x4008(%rsp),%rax
  401db3:	00 
  401db4:	64 48 33 04 25 28 00 	xor    %fs:0x28,%rax
  401dbb:	00 00 
  401dbd:	74 05                	je     401dc4 <notify_server+0x1ea>
  401dbf:	e8 2c ef ff ff       	callq  400cf0 <__stack_chk_fail@plt>
  401dc4:	48 81 c4 10 40 00 00 	add    $0x4010,%rsp
  401dcb:	5b                   	pop    %rbx
  401dcc:	c3                   	retq   

0000000000401dcd <validate>:
  401dcd:	4c 8d 54 24 08       	lea    0x8(%rsp),%r10
  401dd2:	48 83 e4 f0          	and    $0xfffffffffffffff0,%rsp
  401dd6:	41 ff 72 f8          	pushq  -0x8(%r10)
  401dda:	55                   	push   %rbp
  401ddb:	48 89 e5             	mov    %rsp,%rbp
  401dde:	41 52                	push   %r10
  401de0:	53                   	push   %rbx
  401de1:	89 fb                	mov    %edi,%ebx
  401de3:	83 3d 3e 37 20 00 00 	cmpl   $0x0,0x20373e(%rip)        # 605528 <is_checker>
  401dea:	74 6b                	je     401e57 <validate+0x8a>
  401dec:	39 3d 2a 37 20 00    	cmp    %edi,0x20372a(%rip)        # 60551c <vlevel>
  401df2:	74 14                	je     401e08 <validate+0x3b>
  401df4:	bf fa 34 40 00       	mov    $0x4034fa,%edi
  401df9:	e8 d2 ee ff ff       	callq  400cd0 <puts@plt>
  401dfe:	b8 00 00 00 00       	mov    $0x0,%eax
  401e03:	e8 4b fd ff ff       	callq  401b53 <check_fail>
  401e08:	8b 15 0a 37 20 00    	mov    0x20370a(%rip),%edx        # 605518 <check_level>
  401e0e:	39 d7                	cmp    %edx,%edi
  401e10:	74 20                	je     401e32 <validate+0x65>
  401e12:	89 f9                	mov    %edi,%ecx
  401e14:	be 38 36 40 00       	mov    $0x403638,%esi
  401e19:	bf 01 00 00 00       	mov    $0x1,%edi
  401e1e:	b8 00 00 00 00       	mov    $0x0,%eax
  401e23:	e8 d8 ef ff ff       	callq  400e00 <__printf_chk@plt>
  401e28:	b8 00 00 00 00       	mov    $0x0,%eax
  401e2d:	e8 21 fd ff ff       	callq  401b53 <check_fail>
  401e32:	0f be 15 0f 43 20 00 	movsbl 0x20430f(%rip),%edx        # 606148 <target_prefix>
  401e39:	41 b8 40 55 60 00    	mov    $0x605540,%r8d
  401e3f:	89 f9                	mov    %edi,%ecx
  401e41:	be 18 35 40 00       	mov    $0x403518,%esi
  401e46:	bf 01 00 00 00       	mov    $0x1,%edi
  401e4b:	b8 00 00 00 00       	mov    $0x0,%eax
  401e50:	e8 ab ef ff ff       	callq  400e00 <__printf_chk@plt>
  401e55:	eb 49                	jmp    401ea0 <validate+0xd3>
  401e57:	3b 3d bf 36 20 00    	cmp    0x2036bf(%rip),%edi        # 60551c <vlevel>
  401e5d:	74 18                	je     401e77 <validate+0xaa>
  401e5f:	bf fa 34 40 00       	mov    $0x4034fa,%edi
  401e64:	e8 67 ee ff ff       	callq  400cd0 <puts@plt>
  401e69:	89 de                	mov    %ebx,%esi
  401e6b:	bf 00 00 00 00       	mov    $0x0,%edi
  401e70:	e8 65 fd ff ff       	callq  401bda <notify_server>
  401e75:	eb 29                	jmp    401ea0 <validate+0xd3>
  401e77:	0f be 0d ca 42 20 00 	movsbl 0x2042ca(%rip),%ecx        # 606148 <target_prefix>
  401e7e:	89 fa                	mov    %edi,%edx
  401e80:	be 60 36 40 00       	mov    $0x403660,%esi
  401e85:	bf 01 00 00 00       	mov    $0x1,%edi
  401e8a:	b8 00 00 00 00       	mov    $0x0,%eax
  401e8f:	e8 6c ef ff ff       	callq  400e00 <__printf_chk@plt>
  401e94:	89 de                	mov    %ebx,%esi
  401e96:	bf 01 00 00 00       	mov    $0x1,%edi
  401e9b:	e8 3a fd ff ff       	callq  401bda <notify_server>
  401ea0:	5b                   	pop    %rbx
  401ea1:	41 5a                	pop    %r10
  401ea3:	5d                   	pop    %rbp
  401ea4:	49 8d 62 f8          	lea    -0x8(%r10),%rsp
  401ea8:	c3                   	retq   

0000000000401ea9 <fail>:
  401ea9:	48 83 ec 08          	sub    $0x8,%rsp
  401ead:	83 3d 74 36 20 00 00 	cmpl   $0x0,0x203674(%rip)        # 605528 <is_checker>
  401eb4:	74 0a                	je     401ec0 <fail+0x17>
  401eb6:	b8 00 00 00 00       	mov    $0x0,%eax
  401ebb:	e8 93 fc ff ff       	callq  401b53 <check_fail>
  401ec0:	89 fe                	mov    %edi,%esi
  401ec2:	bf 00 00 00 00       	mov    $0x0,%edi
  401ec7:	e8 0e fd ff ff       	callq  401bda <notify_server>
  401ecc:	48 83 c4 08          	add    $0x8,%rsp
  401ed0:	c3                   	retq   

0000000000401ed1 <bushandler>:
  401ed1:	48 83 ec 08          	sub    $0x8,%rsp
  401ed5:	83 3d 4c 36 20 00 00 	cmpl   $0x0,0x20364c(%rip)        # 605528 <is_checker>
  401edc:	74 14                	je     401ef2 <bushandler+0x21>
  401ede:	bf 2d 35 40 00       	mov    $0x40352d,%edi
  401ee3:	e8 e8 ed ff ff       	callq  400cd0 <puts@plt>
  401ee8:	b8 00 00 00 00       	mov    $0x0,%eax
  401eed:	e8 61 fc ff ff       	callq  401b53 <check_fail>
  401ef2:	bf 98 36 40 00       	mov    $0x403698,%edi
  401ef7:	e8 d4 ed ff ff       	callq  400cd0 <puts@plt>
  401efc:	bf 37 35 40 00       	mov    $0x403537,%edi
  401f01:	e8 ca ed ff ff       	callq  400cd0 <puts@plt>
  401f06:	be 00 00 00 00       	mov    $0x0,%esi
  401f0b:	bf 00 00 00 00       	mov    $0x0,%edi
  401f10:	e8 c5 fc ff ff       	callq  401bda <notify_server>
  401f15:	bf 01 00 00 00       	mov    $0x1,%edi
  401f1a:	e8 31 ef ff ff       	callq  400e50 <exit@plt>

0000000000401f1f <seghandler>:
  401f1f:	48 83 ec 08          	sub    $0x8,%rsp
  401f23:	83 3d fe 35 20 00 00 	cmpl   $0x0,0x2035fe(%rip)        # 605528 <is_checker>
  401f2a:	74 14                	je     401f40 <seghandler+0x21>
  401f2c:	bf 4d 35 40 00       	mov    $0x40354d,%edi
  401f31:	e8 9a ed ff ff       	callq  400cd0 <puts@plt>
  401f36:	b8 00 00 00 00       	mov    $0x0,%eax
  401f3b:	e8 13 fc ff ff       	callq  401b53 <check_fail>
  401f40:	bf b8 36 40 00       	mov    $0x4036b8,%edi
  401f45:	e8 86 ed ff ff       	callq  400cd0 <puts@plt>
  401f4a:	bf 37 35 40 00       	mov    $0x403537,%edi
  401f4f:	e8 7c ed ff ff       	callq  400cd0 <puts@plt>
  401f54:	be 00 00 00 00       	mov    $0x0,%esi
  401f59:	bf 00 00 00 00       	mov    $0x0,%edi
  401f5e:	e8 77 fc ff ff       	callq  401bda <notify_server>
  401f63:	bf 01 00 00 00       	mov    $0x1,%edi
  401f68:	e8 e3 ee ff ff       	callq  400e50 <exit@plt>

0000000000401f6d <illegalhandler>:
  401f6d:	48 83 ec 08          	sub    $0x8,%rsp
  401f71:	83 3d b0 35 20 00 00 	cmpl   $0x0,0x2035b0(%rip)        # 605528 <is_checker>
  401f78:	74 14                	je     401f8e <illegalhandler+0x21>
  401f7a:	bf 60 35 40 00       	mov    $0x403560,%edi
  401f7f:	e8 4c ed ff ff       	callq  400cd0 <puts@plt>
  401f84:	b8 00 00 00 00       	mov    $0x0,%eax
  401f89:	e8 c5 fb ff ff       	callq  401b53 <check_fail>
  401f8e:	bf e0 36 40 00       	mov    $0x4036e0,%edi
  401f93:	e8 38 ed ff ff       	callq  400cd0 <puts@plt>
  401f98:	bf 37 35 40 00       	mov    $0x403537,%edi
  401f9d:	e8 2e ed ff ff       	callq  400cd0 <puts@plt>
  401fa2:	be 00 00 00 00       	mov    $0x0,%esi
  401fa7:	bf 00 00 00 00       	mov    $0x0,%edi
  401fac:	e8 29 fc ff ff       	callq  401bda <notify_server>
  401fb1:	bf 01 00 00 00       	mov    $0x1,%edi
  401fb6:	e8 95 ee ff ff       	callq  400e50 <exit@plt>

0000000000401fbb <sigalrmhandler>:
  401fbb:	48 83 ec 08          	sub    $0x8,%rsp
  401fbf:	83 3d 62 35 20 00 00 	cmpl   $0x0,0x203562(%rip)        # 605528 <is_checker>
  401fc6:	74 14                	je     401fdc <sigalrmhandler+0x21>
  401fc8:	bf 74 35 40 00       	mov    $0x403574,%edi
  401fcd:	e8 fe ec ff ff       	callq  400cd0 <puts@plt>
  401fd2:	b8 00 00 00 00       	mov    $0x0,%eax
  401fd7:	e8 77 fb ff ff       	callq  401b53 <check_fail>
  401fdc:	ba 05 00 00 00       	mov    $0x5,%edx
  401fe1:	be 10 37 40 00       	mov    $0x403710,%esi
  401fe6:	bf 01 00 00 00       	mov    $0x1,%edi
  401feb:	b8 00 00 00 00       	mov    $0x0,%eax
  401ff0:	e8 0b ee ff ff       	callq  400e00 <__printf_chk@plt>
  401ff5:	be 00 00 00 00       	mov    $0x0,%esi
  401ffa:	bf 00 00 00 00       	mov    $0x0,%edi
  401fff:	e8 d6 fb ff ff       	callq  401bda <notify_server>
  402004:	bf 01 00 00 00       	mov    $0x1,%edi
  402009:	e8 42 ee ff ff       	callq  400e50 <exit@plt>

000000000040200e <launch>:
  40200e:	55                   	push   %rbp
  40200f:	48 89 e5             	mov    %rsp,%rbp
  402012:	48 83 ec 10          	sub    $0x10,%rsp
  402016:	48 89 fa             	mov    %rdi,%rdx
  402019:	64 48 8b 04 25 28 00 	mov    %fs:0x28,%rax
  402020:	00 00 
  402022:	48 89 45 f8          	mov    %rax,-0x8(%rbp)
  402026:	31 c0                	xor    %eax,%eax
  402028:	48 8d 47 1e          	lea    0x1e(%rdi),%rax
  40202c:	48 83 e0 f0          	and    $0xfffffffffffffff0,%rax
  402030:	48 29 c4             	sub    %rax,%rsp
  402033:	48 8d 7c 24 0f       	lea    0xf(%rsp),%rdi
  402038:	48 83 e7 f0          	and    $0xfffffffffffffff0,%rdi
  40203c:	be f4 00 00 00       	mov    $0xf4,%esi
  402041:	e8 ca ec ff ff       	callq  400d10 <memset@plt>
  402046:	48 8b 05 73 34 20 00 	mov    0x203473(%rip),%rax        # 6054c0 <stdin@@GLIBC_2.2.5>
  40204d:	48 39 05 bc 34 20 00 	cmp    %rax,0x2034bc(%rip)        # 605510 <infile>
  402054:	75 14                	jne    40206a <launch+0x5c>
  402056:	be 7c 35 40 00       	mov    $0x40357c,%esi
  40205b:	bf 01 00 00 00       	mov    $0x1,%edi
  402060:	b8 00 00 00 00       	mov    $0x0,%eax
  402065:	e8 96 ed ff ff       	callq  400e00 <__printf_chk@plt>
  40206a:	c7 05 a8 34 20 00 00 	movl   $0x0,0x2034a8(%rip)        # 60551c <vlevel>
  402071:	00 00 00 
  402074:	b8 00 00 00 00       	mov    $0x0,%eax
  402079:	e8 20 f9 ff ff       	callq  40199e <test>
  40207e:	83 3d a3 34 20 00 00 	cmpl   $0x0,0x2034a3(%rip)        # 605528 <is_checker>
  402085:	74 14                	je     40209b <launch+0x8d>
  402087:	bf 89 35 40 00       	mov    $0x403589,%edi
  40208c:	e8 3f ec ff ff       	callq  400cd0 <puts@plt>
  402091:	b8 00 00 00 00       	mov    $0x0,%eax
  402096:	e8 b8 fa ff ff       	callq  401b53 <check_fail>
  40209b:	bf 94 35 40 00       	mov    $0x403594,%edi
  4020a0:	e8 2b ec ff ff       	callq  400cd0 <puts@plt>
  4020a5:	48 8b 45 f8          	mov    -0x8(%rbp),%rax
  4020a9:	64 48 33 04 25 28 00 	xor    %fs:0x28,%rax
  4020b0:	00 00 
  4020b2:	74 05                	je     4020b9 <launch+0xab>
  4020b4:	e8 37 ec ff ff       	callq  400cf0 <__stack_chk_fail@plt>
  4020b9:	c9                   	leaveq 
  4020ba:	c3                   	retq   

00000000004020bb <stable_launch>:
  4020bb:	53                   	push   %rbx
  4020bc:	48 89 3d 45 34 20 00 	mov    %rdi,0x203445(%rip)        # 605508 <global_offset>
  4020c3:	41 b9 00 00 00 00    	mov    $0x0,%r9d
  4020c9:	41 b8 00 00 00 00    	mov    $0x0,%r8d
  4020cf:	b9 32 01 00 00       	mov    $0x132,%ecx
  4020d4:	ba 07 00 00 00       	mov    $0x7,%edx
  4020d9:	be 00 00 10 00       	mov    $0x100000,%esi
  4020de:	bf 00 60 58 55       	mov    $0x55586000,%edi
  4020e3:	e8 18 ec ff ff       	callq  400d00 <mmap@plt>
  4020e8:	48 89 c3             	mov    %rax,%rbx
  4020eb:	48 3d 00 60 58 55    	cmp    $0x55586000,%rax
  4020f1:	74 37                	je     40212a <stable_launch+0x6f>
  4020f3:	be 00 00 10 00       	mov    $0x100000,%esi
  4020f8:	48 89 c7             	mov    %rax,%rdi
  4020fb:	e8 f0 ec ff ff       	callq  400df0 <munmap@plt>
  402100:	b9 00 60 58 55       	mov    $0x55586000,%ecx
  402105:	ba 48 37 40 00       	mov    $0x403748,%edx
  40210a:	be 01 00 00 00       	mov    $0x1,%esi
  40210f:	48 8b 3d ca 33 20 00 	mov    0x2033ca(%rip),%rdi        # 6054e0 <stderr@@GLIBC_2.2.5>
  402116:	b8 00 00 00 00       	mov    $0x0,%eax
  40211b:	e8 50 ed ff ff       	callq  400e70 <__fprintf_chk@plt>
  402120:	bf 01 00 00 00       	mov    $0x1,%edi
  402125:	e8 26 ed ff ff       	callq  400e50 <exit@plt>
  40212a:	48 8d 90 f8 ff 0f 00 	lea    0xffff8(%rax),%rdx
  402131:	48 89 15 18 40 20 00 	mov    %rdx,0x204018(%rip)        # 606150 <stack_top>
  402138:	48 89 e0             	mov    %rsp,%rax
  40213b:	48 89 d4             	mov    %rdx,%rsp
  40213e:	48 89 c2             	mov    %rax,%rdx
  402141:	48 89 15 b8 33 20 00 	mov    %rdx,0x2033b8(%rip)        # 605500 <global_save_stack>
  402148:	48 8b 3d b9 33 20 00 	mov    0x2033b9(%rip),%rdi        # 605508 <global_offset>
  40214f:	e8 ba fe ff ff       	callq  40200e <launch>
  402154:	48 8b 05 a5 33 20 00 	mov    0x2033a5(%rip),%rax        # 605500 <global_save_stack>
  40215b:	48 89 c4             	mov    %rax,%rsp
  40215e:	be 00 00 10 00       	mov    $0x100000,%esi
  402163:	48 89 df             	mov    %rbx,%rdi
  402166:	e8 85 ec ff ff       	callq  400df0 <munmap@plt>
  40216b:	5b                   	pop    %rbx
  40216c:	c3                   	retq   

000000000040216d <rio_readinitb>:
  40216d:	89 37                	mov    %esi,(%rdi)
  40216f:	c7 47 04 00 00 00 00 	movl   $0x0,0x4(%rdi)
  402176:	48 8d 47 10          	lea    0x10(%rdi),%rax
  40217a:	48 89 47 08          	mov    %rax,0x8(%rdi)
  40217e:	c3                   	retq   

000000000040217f <sigalrm_handler>:
  40217f:	48 83 ec 08          	sub    $0x8,%rsp
  402183:	b9 00 00 00 00       	mov    $0x0,%ecx
  402188:	ba 80 37 40 00       	mov    $0x403780,%edx
  40218d:	be 01 00 00 00       	mov    $0x1,%esi
  402192:	48 8b 3d 47 33 20 00 	mov    0x203347(%rip),%rdi        # 6054e0 <stderr@@GLIBC_2.2.5>
  402199:	b8 00 00 00 00       	mov    $0x0,%eax
  40219e:	e8 cd ec ff ff       	callq  400e70 <__fprintf_chk@plt>
  4021a3:	bf 01 00 00 00       	mov    $0x1,%edi
  4021a8:	e8 a3 ec ff ff       	callq  400e50 <exit@plt>

00000000004021ad <rio_writen>:
  4021ad:	41 55                	push   %r13
  4021af:	41 54                	push   %r12
  4021b1:	55                   	push   %rbp
  4021b2:	53                   	push   %rbx
  4021b3:	48 83 ec 08          	sub    $0x8,%rsp
  4021b7:	41 89 fc             	mov    %edi,%r12d
  4021ba:	48 89 f5             	mov    %rsi,%rbp
  4021bd:	49 89 d5             	mov    %rdx,%r13
  4021c0:	48 89 d3             	mov    %rdx,%rbx
  4021c3:	eb 28                	jmp    4021ed <rio_writen+0x40>
  4021c5:	48 89 da             	mov    %rbx,%rdx
  4021c8:	48 89 ee             	mov    %rbp,%rsi
  4021cb:	44 89 e7             	mov    %r12d,%edi
  4021ce:	e8 0d eb ff ff       	callq  400ce0 <write@plt>
  4021d3:	48 85 c0             	test   %rax,%rax
  4021d6:	7f 0f                	jg     4021e7 <rio_writen+0x3a>
  4021d8:	e8 b3 ea ff ff       	callq  400c90 <__errno_location@plt>
  4021dd:	83 38 04             	cmpl   $0x4,(%rax)
  4021e0:	75 15                	jne    4021f7 <rio_writen+0x4a>
  4021e2:	b8 00 00 00 00       	mov    $0x0,%eax
  4021e7:	48 29 c3             	sub    %rax,%rbx
  4021ea:	48 01 c5             	add    %rax,%rbp
  4021ed:	48 85 db             	test   %rbx,%rbx
  4021f0:	75 d3                	jne    4021c5 <rio_writen+0x18>
  4021f2:	4c 89 e8             	mov    %r13,%rax
  4021f5:	eb 07                	jmp    4021fe <rio_writen+0x51>
  4021f7:	48 c7 c0 ff ff ff ff 	mov    $0xffffffffffffffff,%rax
  4021fe:	48 83 c4 08          	add    $0x8,%rsp
  402202:	5b                   	pop    %rbx
  402203:	5d                   	pop    %rbp
  402204:	41 5c                	pop    %r12
  402206:	41 5d                	pop    %r13
  402208:	c3                   	retq   

0000000000402209 <rio_read>:
  402209:	41 55                	push   %r13
  40220b:	41 54                	push   %r12
  40220d:	55                   	push   %rbp
  40220e:	53                   	push   %rbx
  40220f:	48 83 ec 08          	sub    $0x8,%rsp
  402213:	48 89 fb             	mov    %rdi,%rbx
  402216:	49 89 f5             	mov    %rsi,%r13
  402219:	49 89 d4             	mov    %rdx,%r12
  40221c:	eb 2e                	jmp    40224c <rio_read+0x43>
  40221e:	48 8d 6b 10          	lea    0x10(%rbx),%rbp
  402222:	8b 3b                	mov    (%rbx),%edi
  402224:	ba 00 20 00 00       	mov    $0x2000,%edx
  402229:	48 89 ee             	mov    %rbp,%rsi
  40222c:	e8 0f eb ff ff       	callq  400d40 <read@plt>
  402231:	89 43 04             	mov    %eax,0x4(%rbx)
  402234:	85 c0                	test   %eax,%eax
  402236:	79 0c                	jns    402244 <rio_read+0x3b>
  402238:	e8 53 ea ff ff       	callq  400c90 <__errno_location@plt>
  40223d:	83 38 04             	cmpl   $0x4,(%rax)
  402240:	74 0a                	je     40224c <rio_read+0x43>
  402242:	eb 37                	jmp    40227b <rio_read+0x72>
  402244:	85 c0                	test   %eax,%eax
  402246:	74 3c                	je     402284 <rio_read+0x7b>
  402248:	48 89 6b 08          	mov    %rbp,0x8(%rbx)
  40224c:	8b 6b 04             	mov    0x4(%rbx),%ebp
  40224f:	85 ed                	test   %ebp,%ebp
  402251:	7e cb                	jle    40221e <rio_read+0x15>
  402253:	89 e8                	mov    %ebp,%eax
  402255:	49 39 c4             	cmp    %rax,%r12
  402258:	77 03                	ja     40225d <rio_read+0x54>
  40225a:	44 89 e5             	mov    %r12d,%ebp
  40225d:	4c 63 e5             	movslq %ebp,%r12
  402260:	48 8b 73 08          	mov    0x8(%rbx),%rsi
  402264:	4c 89 e2             	mov    %r12,%rdx
  402267:	4c 89 ef             	mov    %r13,%rdi
  40226a:	e8 31 eb ff ff       	callq  400da0 <memcpy@plt>
  40226f:	4c 01 63 08          	add    %r12,0x8(%rbx)
  402273:	29 6b 04             	sub    %ebp,0x4(%rbx)
  402276:	4c 89 e0             	mov    %r12,%rax
  402279:	eb 0e                	jmp    402289 <rio_read+0x80>
  40227b:	48 c7 c0 ff ff ff ff 	mov    $0xffffffffffffffff,%rax
  402282:	eb 05                	jmp    402289 <rio_read+0x80>
  402284:	b8 00 00 00 00       	mov    $0x0,%eax
  402289:	48 83 c4 08          	add    $0x8,%rsp
  40228d:	5b                   	pop    %rbx
  40228e:	5d                   	pop    %rbp
  40228f:	41 5c                	pop    %r12
  402291:	41 5d                	pop    %r13
  402293:	c3                   	retq   

0000000000402294 <rio_readlineb>:
  402294:	41 55                	push   %r13
  402296:	41 54                	push   %r12
  402298:	55                   	push   %rbp
  402299:	53                   	push   %rbx
  40229a:	48 83 ec 18          	sub    $0x18,%rsp
  40229e:	49 89 fd             	mov    %rdi,%r13
  4022a1:	48 89 f5             	mov    %rsi,%rbp
  4022a4:	49 89 d4             	mov    %rdx,%r12
  4022a7:	64 48 8b 04 25 28 00 	mov    %fs:0x28,%rax
  4022ae:	00 00 
  4022b0:	48 89 44 24 08       	mov    %rax,0x8(%rsp)
  4022b5:	31 c0                	xor    %eax,%eax
  4022b7:	bb 01 00 00 00       	mov    $0x1,%ebx
  4022bc:	eb 3f                	jmp    4022fd <rio_readlineb+0x69>
  4022be:	ba 01 00 00 00       	mov    $0x1,%edx
  4022c3:	48 8d 74 24 07       	lea    0x7(%rsp),%rsi
  4022c8:	4c 89 ef             	mov    %r13,%rdi
  4022cb:	e8 39 ff ff ff       	callq  402209 <rio_read>
  4022d0:	83 f8 01             	cmp    $0x1,%eax
  4022d3:	75 15                	jne    4022ea <rio_readlineb+0x56>
  4022d5:	48 8d 45 01          	lea    0x1(%rbp),%rax
  4022d9:	0f b6 54 24 07       	movzbl 0x7(%rsp),%edx
  4022de:	88 55 00             	mov    %dl,0x0(%rbp)
  4022e1:	80 7c 24 07 0a       	cmpb   $0xa,0x7(%rsp)
  4022e6:	75 0e                	jne    4022f6 <rio_readlineb+0x62>
  4022e8:	eb 1a                	jmp    402304 <rio_readlineb+0x70>
  4022ea:	85 c0                	test   %eax,%eax
  4022ec:	75 22                	jne    402310 <rio_readlineb+0x7c>
  4022ee:	48 83 fb 01          	cmp    $0x1,%rbx
  4022f2:	75 13                	jne    402307 <rio_readlineb+0x73>
  4022f4:	eb 23                	jmp    402319 <rio_readlineb+0x85>
  4022f6:	48 83 c3 01          	add    $0x1,%rbx
  4022fa:	48 89 c5             	mov    %rax,%rbp
  4022fd:	4c 39 e3             	cmp    %r12,%rbx
  402300:	72 bc                	jb     4022be <rio_readlineb+0x2a>
  402302:	eb 03                	jmp    402307 <rio_readlineb+0x73>
  402304:	48 89 c5             	mov    %rax,%rbp
  402307:	c6 45 00 00          	movb   $0x0,0x0(%rbp)
  40230b:	48 89 d8             	mov    %rbx,%rax
  40230e:	eb 0e                	jmp    40231e <rio_readlineb+0x8a>
  402310:	48 c7 c0 ff ff ff ff 	mov    $0xffffffffffffffff,%rax
  402317:	eb 05                	jmp    40231e <rio_readlineb+0x8a>
  402319:	b8 00 00 00 00       	mov    $0x0,%eax
  40231e:	48 8b 4c 24 08       	mov    0x8(%rsp),%rcx
  402323:	64 48 33 0c 25 28 00 	xor    %fs:0x28,%rcx
  40232a:	00 00 
  40232c:	74 05                	je     402333 <rio_readlineb+0x9f>
  40232e:	e8 bd e9 ff ff       	callq  400cf0 <__stack_chk_fail@plt>
  402333:	48 83 c4 18          	add    $0x18,%rsp
  402337:	5b                   	pop    %rbx
  402338:	5d                   	pop    %rbp
  402339:	41 5c                	pop    %r12
  40233b:	41 5d                	pop    %r13
  40233d:	c3                   	retq   

000000000040233e <urlencode>:
  40233e:	41 54                	push   %r12
  402340:	55                   	push   %rbp
  402341:	53                   	push   %rbx
  402342:	48 83 ec 10          	sub    $0x10,%rsp
  402346:	48 89 fb             	mov    %rdi,%rbx
  402349:	48 89 f5             	mov    %rsi,%rbp
  40234c:	64 48 8b 04 25 28 00 	mov    %fs:0x28,%rax
  402353:	00 00 
  402355:	48 89 44 24 08       	mov    %rax,0x8(%rsp)
  40235a:	31 c0                	xor    %eax,%eax
  40235c:	48 c7 c1 ff ff ff ff 	mov    $0xffffffffffffffff,%rcx
  402363:	f2 ae                	repnz scas %es:(%rdi),%al
  402365:	48 f7 d1             	not    %rcx
  402368:	8d 41 ff             	lea    -0x1(%rcx),%eax
  40236b:	e9 aa 00 00 00       	jmpq   40241a <urlencode+0xdc>
  402370:	44 0f b6 03          	movzbl (%rbx),%r8d
  402374:	41 80 f8 2a          	cmp    $0x2a,%r8b
  402378:	0f 94 c2             	sete   %dl
  40237b:	41 80 f8 2d          	cmp    $0x2d,%r8b
  40237f:	0f 94 c0             	sete   %al
  402382:	08 c2                	or     %al,%dl
  402384:	75 24                	jne    4023aa <urlencode+0x6c>
  402386:	41 80 f8 2e          	cmp    $0x2e,%r8b
  40238a:	74 1e                	je     4023aa <urlencode+0x6c>
  40238c:	41 80 f8 5f          	cmp    $0x5f,%r8b
  402390:	74 18                	je     4023aa <urlencode+0x6c>
  402392:	41 8d 40 d0          	lea    -0x30(%r8),%eax
  402396:	3c 09                	cmp    $0x9,%al
  402398:	76 10                	jbe    4023aa <urlencode+0x6c>
  40239a:	41 8d 40 bf          	lea    -0x41(%r8),%eax
  40239e:	3c 19                	cmp    $0x19,%al
  4023a0:	76 08                	jbe    4023aa <urlencode+0x6c>
  4023a2:	41 8d 40 9f          	lea    -0x61(%r8),%eax
  4023a6:	3c 19                	cmp    $0x19,%al
  4023a8:	77 0a                	ja     4023b4 <urlencode+0x76>
  4023aa:	44 88 45 00          	mov    %r8b,0x0(%rbp)
  4023ae:	48 8d 6d 01          	lea    0x1(%rbp),%rbp
  4023b2:	eb 5f                	jmp    402413 <urlencode+0xd5>
  4023b4:	41 80 f8 20          	cmp    $0x20,%r8b
  4023b8:	75 0a                	jne    4023c4 <urlencode+0x86>
  4023ba:	c6 45 00 2b          	movb   $0x2b,0x0(%rbp)
  4023be:	48 8d 6d 01          	lea    0x1(%rbp),%rbp
  4023c2:	eb 4f                	jmp    402413 <urlencode+0xd5>
  4023c4:	41 8d 40 e0          	lea    -0x20(%r8),%eax
  4023c8:	3c 5f                	cmp    $0x5f,%al
  4023ca:	0f 96 c2             	setbe  %dl
  4023cd:	41 80 f8 09          	cmp    $0x9,%r8b
  4023d1:	0f 94 c0             	sete   %al
  4023d4:	08 c2                	or     %al,%dl
  4023d6:	74 50                	je     402428 <urlencode+0xea>
  4023d8:	45 0f b6 c0          	movzbl %r8b,%r8d
  4023dc:	b9 18 38 40 00       	mov    $0x403818,%ecx
  4023e1:	ba 08 00 00 00       	mov    $0x8,%edx
  4023e6:	be 01 00 00 00       	mov    $0x1,%esi
  4023eb:	48 89 e7             	mov    %rsp,%rdi
  4023ee:	b8 00 00 00 00       	mov    $0x0,%eax
  4023f3:	e8 88 ea ff ff       	callq  400e80 <__sprintf_chk@plt>
  4023f8:	0f b6 04 24          	movzbl (%rsp),%eax
  4023fc:	88 45 00             	mov    %al,0x0(%rbp)
  4023ff:	0f b6 44 24 01       	movzbl 0x1(%rsp),%eax
  402404:	88 45 01             	mov    %al,0x1(%rbp)
  402407:	0f b6 44 24 02       	movzbl 0x2(%rsp),%eax
  40240c:	88 45 02             	mov    %al,0x2(%rbp)
  40240f:	48 8d 6d 03          	lea    0x3(%rbp),%rbp
  402413:	48 83 c3 01          	add    $0x1,%rbx
  402417:	44 89 e0             	mov    %r12d,%eax
  40241a:	44 8d 60 ff          	lea    -0x1(%rax),%r12d
  40241e:	85 c0                	test   %eax,%eax
  402420:	0f 85 4a ff ff ff    	jne    402370 <urlencode+0x32>
  402426:	eb 05                	jmp    40242d <urlencode+0xef>
  402428:	b8 ff ff ff ff       	mov    $0xffffffff,%eax
  40242d:	48 8b 74 24 08       	mov    0x8(%rsp),%rsi
  402432:	64 48 33 34 25 28 00 	xor    %fs:0x28,%rsi
  402439:	00 00 
  40243b:	74 05                	je     402442 <urlencode+0x104>
  40243d:	e8 ae e8 ff ff       	callq  400cf0 <__stack_chk_fail@plt>
  402442:	48 83 c4 10          	add    $0x10,%rsp
  402446:	5b                   	pop    %rbx
  402447:	5d                   	pop    %rbp
  402448:	41 5c                	pop    %r12
  40244a:	c3                   	retq   

000000000040244b <submitr>:
  40244b:	41 57                	push   %r15
  40244d:	41 56                	push   %r14
  40244f:	41 55                	push   %r13
  402451:	41 54                	push   %r12
  402453:	55                   	push   %rbp
  402454:	53                   	push   %rbx
  402455:	48 81 ec 58 a0 00 00 	sub    $0xa058,%rsp
  40245c:	49 89 fc             	mov    %rdi,%r12
  40245f:	89 74 24 04          	mov    %esi,0x4(%rsp)
  402463:	49 89 d7             	mov    %rdx,%r15
  402466:	49 89 ce             	mov    %rcx,%r14
  402469:	4c 89 44 24 08       	mov    %r8,0x8(%rsp)
  40246e:	4d 89 cd             	mov    %r9,%r13
  402471:	48 8b 9c 24 90 a0 00 	mov    0xa090(%rsp),%rbx
  402478:	00 
  402479:	64 48 8b 04 25 28 00 	mov    %fs:0x28,%rax
  402480:	00 00 
  402482:	48 89 84 24 48 a0 00 	mov    %rax,0xa048(%rsp)
  402489:	00 
  40248a:	31 c0                	xor    %eax,%eax
  40248c:	c7 44 24 1c 00 00 00 	movl   $0x0,0x1c(%rsp)
  402493:	00 
  402494:	ba 00 00 00 00       	mov    $0x0,%edx
  402499:	be 01 00 00 00       	mov    $0x1,%esi
  40249e:	bf 02 00 00 00       	mov    $0x2,%edi
  4024a3:	e8 e8 e9 ff ff       	callq  400e90 <socket@plt>
  4024a8:	85 c0                	test   %eax,%eax
  4024aa:	79 4e                	jns    4024fa <submitr+0xaf>
  4024ac:	48 b8 45 72 72 6f 72 	movabs $0x43203a726f727245,%rax
  4024b3:	3a 20 43 
  4024b6:	48 89 03             	mov    %rax,(%rbx)
  4024b9:	48 b8 6c 69 65 6e 74 	movabs $0x6e7520746e65696c,%rax
  4024c0:	20 75 6e 
  4024c3:	48 89 43 08          	mov    %rax,0x8(%rbx)
  4024c7:	48 b8 61 62 6c 65 20 	movabs $0x206f7420656c6261,%rax
  4024ce:	74 6f 20 
  4024d1:	48 89 43 10          	mov    %rax,0x10(%rbx)
  4024d5:	48 b8 63 72 65 61 74 	movabs $0x7320657461657263,%rax
  4024dc:	65 20 73 
  4024df:	48 89 43 18          	mov    %rax,0x18(%rbx)
  4024e3:	c7 43 20 6f 63 6b 65 	movl   $0x656b636f,0x20(%rbx)
  4024ea:	66 c7 43 24 74 00    	movw   $0x74,0x24(%rbx)
  4024f0:	b8 ff ff ff ff       	mov    $0xffffffff,%eax
  4024f5:	e9 97 06 00 00       	jmpq   402b91 <submitr+0x746>
  4024fa:	89 c5                	mov    %eax,%ebp
  4024fc:	4c 89 e7             	mov    %r12,%rdi
  4024ff:	e8 6c e8 ff ff       	callq  400d70 <gethostbyname@plt>
  402504:	48 85 c0             	test   %rax,%rax
  402507:	75 67                	jne    402570 <submitr+0x125>
  402509:	48 b8 45 72 72 6f 72 	movabs $0x44203a726f727245,%rax
  402510:	3a 20 44 
  402513:	48 89 03             	mov    %rax,(%rbx)
  402516:	48 b8 4e 53 20 69 73 	movabs $0x6e7520736920534e,%rax
  40251d:	20 75 6e 
  402520:	48 89 43 08          	mov    %rax,0x8(%rbx)
  402524:	48 b8 61 62 6c 65 20 	movabs $0x206f7420656c6261,%rax
  40252b:	74 6f 20 
  40252e:	48 89 43 10          	mov    %rax,0x10(%rbx)
  402532:	48 b8 72 65 73 6f 6c 	movabs $0x2065766c6f736572,%rax
  402539:	76 65 20 
  40253c:	48 89 43 18          	mov    %rax,0x18(%rbx)
  402540:	48 b8 73 65 72 76 65 	movabs $0x6120726576726573,%rax
  402547:	72 20 61 
  40254a:	48 89 43 20          	mov    %rax,0x20(%rbx)
  40254e:	c7 43 28 64 64 72 65 	movl   $0x65726464,0x28(%rbx)
  402555:	66 c7 43 2c 73 73    	movw   $0x7373,0x2c(%rbx)
  40255b:	c6 43 2e 00          	movb   $0x0,0x2e(%rbx)
  40255f:	89 ef                	mov    %ebp,%edi
  402561:	e8 ca e7 ff ff       	callq  400d30 <close@plt>
  402566:	b8 ff ff ff ff       	mov    $0xffffffff,%eax
  40256b:	e9 21 06 00 00       	jmpq   402b91 <submitr+0x746>
  402570:	48 c7 44 24 20 00 00 	movq   $0x0,0x20(%rsp)
  402577:	00 00 
  402579:	48 c7 44 24 28 00 00 	movq   $0x0,0x28(%rsp)
  402580:	00 00 
  402582:	66 c7 44 24 20 02 00 	movw   $0x2,0x20(%rsp)
  402589:	48 63 50 14          	movslq 0x14(%rax),%rdx
  40258d:	48 8b 40 18          	mov    0x18(%rax),%rax
  402591:	48 8b 30             	mov    (%rax),%rsi
  402594:	48 8d 7c 24 24       	lea    0x24(%rsp),%rdi
  402599:	b9 0c 00 00 00       	mov    $0xc,%ecx
  40259e:	e8 dd e7 ff ff       	callq  400d80 <__memmove_chk@plt>
  4025a3:	0f b7 44 24 04       	movzwl 0x4(%rsp),%eax
  4025a8:	66 c1 c8 08          	ror    $0x8,%ax
  4025ac:	66 89 44 24 22       	mov    %ax,0x22(%rsp)
  4025b1:	ba 10 00 00 00       	mov    $0x10,%edx
  4025b6:	48 8d 74 24 20       	lea    0x20(%rsp),%rsi
  4025bb:	89 ef                	mov    %ebp,%edi
  4025bd:	e8 9e e8 ff ff       	callq  400e60 <connect@plt>
  4025c2:	85 c0                	test   %eax,%eax
  4025c4:	79 59                	jns    40261f <submitr+0x1d4>
  4025c6:	48 b8 45 72 72 6f 72 	movabs $0x55203a726f727245,%rax
  4025cd:	3a 20 55 
  4025d0:	48 89 03             	mov    %rax,(%rbx)
  4025d3:	48 b8 6e 61 62 6c 65 	movabs $0x6f7420656c62616e,%rax
  4025da:	20 74 6f 
  4025dd:	48 89 43 08          	mov    %rax,0x8(%rbx)
  4025e1:	48 b8 20 63 6f 6e 6e 	movabs $0x7463656e6e6f6320,%rax
  4025e8:	65 63 74 
  4025eb:	48 89 43 10          	mov    %rax,0x10(%rbx)
  4025ef:	48 b8 20 74 6f 20 74 	movabs $0x20656874206f7420,%rax
  4025f6:	68 65 20 
  4025f9:	48 89 43 18          	mov    %rax,0x18(%rbx)
  4025fd:	c7 43 20 73 65 72 76 	movl   $0x76726573,0x20(%rbx)
  402604:	66 c7 43 24 65 72    	movw   $0x7265,0x24(%rbx)
  40260a:	c6 43 26 00          	movb   $0x0,0x26(%rbx)
  40260e:	89 ef                	mov    %ebp,%edi
  402610:	e8 1b e7 ff ff       	callq  400d30 <close@plt>
  402615:	b8 ff ff ff ff       	mov    $0xffffffff,%eax
  40261a:	e9 72 05 00 00       	jmpq   402b91 <submitr+0x746>
  40261f:	48 c7 c6 ff ff ff ff 	mov    $0xffffffffffffffff,%rsi
  402626:	b8 00 00 00 00       	mov    $0x0,%eax
  40262b:	48 89 f1             	mov    %rsi,%rcx
  40262e:	4c 89 ef             	mov    %r13,%rdi
  402631:	f2 ae                	repnz scas %es:(%rdi),%al
  402633:	48 f7 d1             	not    %rcx
  402636:	48 89 ca             	mov    %rcx,%rdx
  402639:	48 89 f1             	mov    %rsi,%rcx
  40263c:	4c 89 ff             	mov    %r15,%rdi
  40263f:	f2 ae                	repnz scas %es:(%rdi),%al
  402641:	48 f7 d1             	not    %rcx
  402644:	49 89 c8             	mov    %rcx,%r8
  402647:	48 89 f1             	mov    %rsi,%rcx
  40264a:	4c 89 f7             	mov    %r14,%rdi
  40264d:	f2 ae                	repnz scas %es:(%rdi),%al
  40264f:	48 f7 d1             	not    %rcx
  402652:	4d 8d 44 08 fe       	lea    -0x2(%r8,%rcx,1),%r8
  402657:	48 89 f1             	mov    %rsi,%rcx
  40265a:	48 8b 7c 24 08       	mov    0x8(%rsp),%rdi
  40265f:	f2 ae                	repnz scas %es:(%rdi),%al
  402661:	48 89 c8             	mov    %rcx,%rax
  402664:	48 f7 d0             	not    %rax
  402667:	49 8d 4c 00 ff       	lea    -0x1(%r8,%rax,1),%rcx
  40266c:	48 8d 44 52 fd       	lea    -0x3(%rdx,%rdx,2),%rax
  402671:	48 8d 84 01 80 00 00 	lea    0x80(%rcx,%rax,1),%rax
  402678:	00 
  402679:	48 3d 00 20 00 00    	cmp    $0x2000,%rax
  40267f:	76 72                	jbe    4026f3 <submitr+0x2a8>
  402681:	48 b8 45 72 72 6f 72 	movabs $0x52203a726f727245,%rax
  402688:	3a 20 52 
  40268b:	48 89 03             	mov    %rax,(%rbx)
  40268e:	48 b8 65 73 75 6c 74 	movabs $0x747320746c757365,%rax
  402695:	20 73 74 
  402698:	48 89 43 08          	mov    %rax,0x8(%rbx)
  40269c:	48 b8 72 69 6e 67 20 	movabs $0x6f6f7420676e6972,%rax
  4026a3:	74 6f 6f 
  4026a6:	48 89 43 10          	mov    %rax,0x10(%rbx)
  4026aa:	48 b8 20 6c 61 72 67 	movabs $0x202e656772616c20,%rax
  4026b1:	65 2e 20 
  4026b4:	48 89 43 18          	mov    %rax,0x18(%rbx)
  4026b8:	48 b8 49 6e 63 72 65 	movabs $0x6573616572636e49,%rax
  4026bf:	61 73 65 
  4026c2:	48 89 43 20          	mov    %rax,0x20(%rbx)
  4026c6:	48 b8 20 53 55 42 4d 	movabs $0x5254494d42555320,%rax
  4026cd:	49 54 52 
  4026d0:	48 89 43 28          	mov    %rax,0x28(%rbx)
  4026d4:	48 b8 5f 4d 41 58 42 	movabs $0x46554258414d5f,%rax
  4026db:	55 46 00 
  4026de:	48 89 43 30          	mov    %rax,0x30(%rbx)
  4026e2:	89 ef                	mov    %ebp,%edi
  4026e4:	e8 47 e6 ff ff       	callq  400d30 <close@plt>
  4026e9:	b8 ff ff ff ff       	mov    $0xffffffff,%eax
  4026ee:	e9 9e 04 00 00       	jmpq   402b91 <submitr+0x746>
  4026f3:	48 8d b4 24 40 40 00 	lea    0x4040(%rsp),%rsi
  4026fa:	00 
  4026fb:	b9 00 04 00 00       	mov    $0x400,%ecx
  402700:	b8 00 00 00 00       	mov    $0x0,%eax
  402705:	48 89 f7             	mov    %rsi,%rdi
  402708:	f3 48 ab             	rep stos %rax,%es:(%rdi)
  40270b:	4c 89 ef             	mov    %r13,%rdi
  40270e:	e8 2b fc ff ff       	callq  40233e <urlencode>
  402713:	85 c0                	test   %eax,%eax
  402715:	0f 89 8a 00 00 00    	jns    4027a5 <submitr+0x35a>
  40271b:	48 b8 45 72 72 6f 72 	movabs $0x52203a726f727245,%rax
  402722:	3a 20 52 
  402725:	48 89 03             	mov    %rax,(%rbx)
  402728:	48 b8 65 73 75 6c 74 	movabs $0x747320746c757365,%rax
  40272f:	20 73 74 
  402732:	48 89 43 08          	mov    %rax,0x8(%rbx)
  402736:	48 b8 72 69 6e 67 20 	movabs $0x6e6f6320676e6972,%rax
  40273d:	63 6f 6e 
  402740:	48 89 43 10          	mov    %rax,0x10(%rbx)
  402744:	48 b8 74 61 69 6e 73 	movabs $0x6e6120736e696174,%rax
  40274b:	20 61 6e 
  40274e:	48 89 43 18          	mov    %rax,0x18(%rbx)
  402752:	48 b8 20 69 6c 6c 65 	movabs $0x6c6167656c6c6920,%rax
  402759:	67 61 6c 
  40275c:	48 89 43 20          	mov    %rax,0x20(%rbx)
  402760:	48 b8 20 6f 72 20 75 	movabs $0x72706e7520726f20,%rax
  402767:	6e 70 72 
  40276a:	48 89 43 28          	mov    %rax,0x28(%rbx)
  40276e:	48 b8 69 6e 74 61 62 	movabs $0x20656c6261746e69,%rax
  402775:	6c 65 20 
  402778:	48 89 43 30          	mov    %rax,0x30(%rbx)
  40277c:	48 b8 63 68 61 72 61 	movabs $0x6574636172616863,%rax
  402783:	63 74 65 
  402786:	48 89 43 38          	mov    %rax,0x38(%rbx)
  40278a:	66 c7 43 40 72 2e    	movw   $0x2e72,0x40(%rbx)
  402790:	c6 43 42 00          	movb   $0x0,0x42(%rbx)
  402794:	89 ef                	mov    %ebp,%edi
  402796:	e8 95 e5 ff ff       	callq  400d30 <close@plt>
  40279b:	b8 ff ff ff ff       	mov    $0xffffffff,%eax
  4027a0:	e9 ec 03 00 00       	jmpq   402b91 <submitr+0x746>
  4027a5:	4c 8d ac 24 40 20 00 	lea    0x2040(%rsp),%r13
  4027ac:	00 
  4027ad:	41 54                	push   %r12
  4027af:	48 8d 84 24 48 40 00 	lea    0x4048(%rsp),%rax
  4027b6:	00 
  4027b7:	50                   	push   %rax
  4027b8:	4d 89 f9             	mov    %r15,%r9
  4027bb:	4d 89 f0             	mov    %r14,%r8
  4027be:	b9 a8 37 40 00       	mov    $0x4037a8,%ecx
  4027c3:	ba 00 20 00 00       	mov    $0x2000,%edx
  4027c8:	be 01 00 00 00       	mov    $0x1,%esi
  4027cd:	4c 89 ef             	mov    %r13,%rdi
  4027d0:	b8 00 00 00 00       	mov    $0x0,%eax
  4027d5:	e8 a6 e6 ff ff       	callq  400e80 <__sprintf_chk@plt>
  4027da:	b8 00 00 00 00       	mov    $0x0,%eax
  4027df:	48 c7 c1 ff ff ff ff 	mov    $0xffffffffffffffff,%rcx
  4027e6:	4c 89 ef             	mov    %r13,%rdi
  4027e9:	f2 ae                	repnz scas %es:(%rdi),%al
  4027eb:	48 f7 d1             	not    %rcx
  4027ee:	48 8d 51 ff          	lea    -0x1(%rcx),%rdx
  4027f2:	4c 89 ee             	mov    %r13,%rsi
  4027f5:	89 ef                	mov    %ebp,%edi
  4027f7:	e8 b1 f9 ff ff       	callq  4021ad <rio_writen>
  4027fc:	48 83 c4 10          	add    $0x10,%rsp
  402800:	48 85 c0             	test   %rax,%rax
  402803:	79 6e                	jns    402873 <submitr+0x428>
  402805:	48 b8 45 72 72 6f 72 	movabs $0x43203a726f727245,%rax
  40280c:	3a 20 43 
  40280f:	48 89 03             	mov    %rax,(%rbx)
  402812:	48 b8 6c 69 65 6e 74 	movabs $0x6e7520746e65696c,%rax
  402819:	20 75 6e 
  40281c:	48 89 43 08          	mov    %rax,0x8(%rbx)
  402820:	48 b8 61 62 6c 65 20 	movabs $0x206f7420656c6261,%rax
  402827:	74 6f 20 
  40282a:	48 89 43 10          	mov    %rax,0x10(%rbx)
  40282e:	48 b8 77 72 69 74 65 	movabs $0x6f74206574697277,%rax
  402835:	20 74 6f 
  402838:	48 89 43 18          	mov    %rax,0x18(%rbx)
  40283c:	48 b8 20 74 68 65 20 	movabs $0x7365722065687420,%rax
  402843:	72 65 73 
  402846:	48 89 43 20          	mov    %rax,0x20(%rbx)
  40284a:	48 b8 75 6c 74 20 73 	movabs $0x7672657320746c75,%rax
  402851:	65 72 76 
  402854:	48 89 43 28          	mov    %rax,0x28(%rbx)
  402858:	66 c7 43 30 65 72    	movw   $0x7265,0x30(%rbx)
  40285e:	c6 43 32 00          	movb   $0x0,0x32(%rbx)
  402862:	89 ef                	mov    %ebp,%edi
  402864:	e8 c7 e4 ff ff       	callq  400d30 <close@plt>
  402869:	b8 ff ff ff ff       	mov    $0xffffffff,%eax
  40286e:	e9 1e 03 00 00       	jmpq   402b91 <submitr+0x746>
  402873:	89 ee                	mov    %ebp,%esi
  402875:	48 8d 7c 24 30       	lea    0x30(%rsp),%rdi
  40287a:	e8 ee f8 ff ff       	callq  40216d <rio_readinitb>
  40287f:	ba 00 20 00 00       	mov    $0x2000,%edx
  402884:	48 8d b4 24 40 20 00 	lea    0x2040(%rsp),%rsi
  40288b:	00 
  40288c:	48 8d 7c 24 30       	lea    0x30(%rsp),%rdi
  402891:	e8 fe f9 ff ff       	callq  402294 <rio_readlineb>
  402896:	48 85 c0             	test   %rax,%rax
  402899:	7f 7d                	jg     402918 <submitr+0x4cd>
  40289b:	48 b8 45 72 72 6f 72 	movabs $0x43203a726f727245,%rax
  4028a2:	3a 20 43 
  4028a5:	48 89 03             	mov    %rax,(%rbx)
  4028a8:	48 b8 6c 69 65 6e 74 	movabs $0x6e7520746e65696c,%rax
  4028af:	20 75 6e 
  4028b2:	48 89 43 08          	mov    %rax,0x8(%rbx)
  4028b6:	48 b8 61 62 6c 65 20 	movabs $0x206f7420656c6261,%rax
  4028bd:	74 6f 20 
  4028c0:	48 89 43 10          	mov    %rax,0x10(%rbx)
  4028c4:	48 b8 72 65 61 64 20 	movabs $0x7269662064616572,%rax
  4028cb:	66 69 72 
  4028ce:	48 89 43 18          	mov    %rax,0x18(%rbx)
  4028d2:	48 b8 73 74 20 68 65 	movabs $0x6564616568207473,%rax
  4028d9:	61 64 65 
  4028dc:	48 89 43 20          	mov    %rax,0x20(%rbx)
  4028e0:	48 b8 72 20 66 72 6f 	movabs $0x72206d6f72662072,%rax
  4028e7:	6d 20 72 
  4028ea:	48 89 43 28          	mov    %rax,0x28(%rbx)
  4028ee:	48 b8 65 73 75 6c 74 	movabs $0x657320746c757365,%rax
  4028f5:	20 73 65 
  4028f8:	48 89 43 30          	mov    %rax,0x30(%rbx)
  4028fc:	c7 43 38 72 76 65 72 	movl   $0x72657672,0x38(%rbx)
  402903:	c6 43 3c 00          	movb   $0x0,0x3c(%rbx)
  402907:	89 ef                	mov    %ebp,%edi
  402909:	e8 22 e4 ff ff       	callq  400d30 <close@plt>
  40290e:	b8 ff ff ff ff       	mov    $0xffffffff,%eax
  402913:	e9 79 02 00 00       	jmpq   402b91 <submitr+0x746>
  402918:	4c 8d 84 24 40 80 00 	lea    0x8040(%rsp),%r8
  40291f:	00 
  402920:	48 8d 4c 24 1c       	lea    0x1c(%rsp),%rcx
  402925:	48 8d 94 24 40 60 00 	lea    0x6040(%rsp),%rdx
  40292c:	00 
  40292d:	be 1f 38 40 00       	mov    $0x40381f,%esi
  402932:	48 8d bc 24 40 20 00 	lea    0x2040(%rsp),%rdi
  402939:	00 
  40293a:	b8 00 00 00 00       	mov    $0x0,%eax
  40293f:	e8 9c e4 ff ff       	callq  400de0 <__isoc99_sscanf@plt>
  402944:	e9 95 00 00 00       	jmpq   4029de <submitr+0x593>
  402949:	ba 00 20 00 00       	mov    $0x2000,%edx
  40294e:	48 8d b4 24 40 20 00 	lea    0x2040(%rsp),%rsi
  402955:	00 
  402956:	48 8d 7c 24 30       	lea    0x30(%rsp),%rdi
  40295b:	e8 34 f9 ff ff       	callq  402294 <rio_readlineb>
  402960:	48 85 c0             	test   %rax,%rax
  402963:	7f 79                	jg     4029de <submitr+0x593>
  402965:	48 b8 45 72 72 6f 72 	movabs $0x43203a726f727245,%rax
  40296c:	3a 20 43 
  40296f:	48 89 03             	mov    %rax,(%rbx)
  402972:	48 b8 6c 69 65 6e 74 	movabs $0x6e7520746e65696c,%rax
  402979:	20 75 6e 
  40297c:	48 89 43 08          	mov    %rax,0x8(%rbx)
  402980:	48 b8 61 62 6c 65 20 	movabs $0x206f7420656c6261,%rax
  402987:	74 6f 20 
  40298a:	48 89 43 10          	mov    %rax,0x10(%rbx)
  40298e:	48 b8 72 65 61 64 20 	movabs $0x6165682064616572,%rax
  402995:	68 65 61 
  402998:	48 89 43 18          	mov    %rax,0x18(%rbx)
  40299c:	48 b8 64 65 72 73 20 	movabs $0x6f72662073726564,%rax
  4029a3:	66 72 6f 
  4029a6:	48 89 43 20          	mov    %rax,0x20(%rbx)
  4029aa:	48 b8 6d 20 74 68 65 	movabs $0x657220656874206d,%rax
  4029b1:	20 72 65 
  4029b4:	48 89 43 28          	mov    %rax,0x28(%rbx)
  4029b8:	48 b8 73 75 6c 74 20 	movabs $0x72657320746c7573,%rax
  4029bf:	73 65 72 
  4029c2:	48 89 43 30          	mov    %rax,0x30(%rbx)
  4029c6:	c7 43 38 76 65 72 00 	movl   $0x726576,0x38(%rbx)
  4029cd:	89 ef                	mov    %ebp,%edi
  4029cf:	e8 5c e3 ff ff       	callq  400d30 <close@plt>
  4029d4:	b8 ff ff ff ff       	mov    $0xffffffff,%eax
  4029d9:	e9 b3 01 00 00       	jmpq   402b91 <submitr+0x746>
  4029de:	0f b6 94 24 40 20 00 	movzbl 0x2040(%rsp),%edx
  4029e5:	00 
  4029e6:	b8 0d 00 00 00       	mov    $0xd,%eax
  4029eb:	29 d0                	sub    %edx,%eax
  4029ed:	75 1b                	jne    402a0a <submitr+0x5bf>
  4029ef:	0f b6 94 24 41 20 00 	movzbl 0x2041(%rsp),%edx
  4029f6:	00 
  4029f7:	b8 0a 00 00 00       	mov    $0xa,%eax
  4029fc:	29 d0                	sub    %edx,%eax
  4029fe:	75 0a                	jne    402a0a <submitr+0x5bf>
  402a00:	0f b6 84 24 42 20 00 	movzbl 0x2042(%rsp),%eax
  402a07:	00 
  402a08:	f7 d8                	neg    %eax
  402a0a:	85 c0                	test   %eax,%eax
  402a0c:	0f 85 37 ff ff ff    	jne    402949 <submitr+0x4fe>
  402a12:	ba 00 20 00 00       	mov    $0x2000,%edx
  402a17:	48 8d b4 24 40 20 00 	lea    0x2040(%rsp),%rsi
  402a1e:	00 
  402a1f:	48 8d 7c 24 30       	lea    0x30(%rsp),%rdi
  402a24:	e8 6b f8 ff ff       	callq  402294 <rio_readlineb>
  402a29:	48 85 c0             	test   %rax,%rax
  402a2c:	0f 8f 83 00 00 00    	jg     402ab5 <submitr+0x66a>
  402a32:	48 b8 45 72 72 6f 72 	movabs $0x43203a726f727245,%rax
  402a39:	3a 20 43 
  402a3c:	48 89 03             	mov    %rax,(%rbx)
  402a3f:	48 b8 6c 69 65 6e 74 	movabs $0x6e7520746e65696c,%rax
  402a46:	20 75 6e 
  402a49:	48 89 43 08          	mov    %rax,0x8(%rbx)
  402a4d:	48 b8 61 62 6c 65 20 	movabs $0x206f7420656c6261,%rax
  402a54:	74 6f 20 
  402a57:	48 89 43 10          	mov    %rax,0x10(%rbx)
  402a5b:	48 b8 72 65 61 64 20 	movabs $0x6174732064616572,%rax
  402a62:	73 74 61 
  402a65:	48 89 43 18          	mov    %rax,0x18(%rbx)
  402a69:	48 b8 74 75 73 20 6d 	movabs $0x7373656d20737574,%rax
  402a70:	65 73 73 
  402a73:	48 89 43 20          	mov    %rax,0x20(%rbx)
  402a77:	48 b8 61 67 65 20 66 	movabs $0x6d6f726620656761,%rax
  402a7e:	72 6f 6d 
  402a81:	48 89 43 28          	mov    %rax,0x28(%rbx)
  402a85:	48 b8 20 72 65 73 75 	movabs $0x20746c7573657220,%rax
  402a8c:	6c 74 20 
  402a8f:	48 89 43 30          	mov    %rax,0x30(%rbx)
  402a93:	c7 43 38 73 65 72 76 	movl   $0x76726573,0x38(%rbx)
  402a9a:	66 c7 43 3c 65 72    	movw   $0x7265,0x3c(%rbx)
  402aa0:	c6 43 3e 00          	movb   $0x0,0x3e(%rbx)
  402aa4:	89 ef                	mov    %ebp,%edi
  402aa6:	e8 85 e2 ff ff       	callq  400d30 <close@plt>
  402aab:	b8 ff ff ff ff       	mov    $0xffffffff,%eax
  402ab0:	e9 dc 00 00 00       	jmpq   402b91 <submitr+0x746>
  402ab5:	44 8b 44 24 1c       	mov    0x1c(%rsp),%r8d
  402aba:	41 81 f8 c8 00 00 00 	cmp    $0xc8,%r8d
  402ac1:	74 37                	je     402afa <submitr+0x6af>
  402ac3:	4c 8d 8c 24 40 80 00 	lea    0x8040(%rsp),%r9
  402aca:	00 
  402acb:	b9 e8 37 40 00       	mov    $0x4037e8,%ecx
  402ad0:	48 c7 c2 ff ff ff ff 	mov    $0xffffffffffffffff,%rdx
  402ad7:	be 01 00 00 00       	mov    $0x1,%esi
  402adc:	48 89 df             	mov    %rbx,%rdi
  402adf:	b8 00 00 00 00       	mov    $0x0,%eax
  402ae4:	e8 97 e3 ff ff       	callq  400e80 <__sprintf_chk@plt>
  402ae9:	89 ef                	mov    %ebp,%edi
  402aeb:	e8 40 e2 ff ff       	callq  400d30 <close@plt>
  402af0:	b8 ff ff ff ff       	mov    $0xffffffff,%eax
  402af5:	e9 97 00 00 00       	jmpq   402b91 <submitr+0x746>
  402afa:	48 8d b4 24 40 20 00 	lea    0x2040(%rsp),%rsi
  402b01:	00 
  402b02:	48 89 df             	mov    %rbx,%rdi
  402b05:	e8 b6 e1 ff ff       	callq  400cc0 <strcpy@plt>
  402b0a:	89 ef                	mov    %ebp,%edi
  402b0c:	e8 1f e2 ff ff       	callq  400d30 <close@plt>
  402b11:	0f b6 03             	movzbl (%rbx),%eax
  402b14:	ba 4f 00 00 00       	mov    $0x4f,%edx
  402b19:	29 c2                	sub    %eax,%edx
  402b1b:	75 22                	jne    402b3f <submitr+0x6f4>
  402b1d:	0f b6 4b 01          	movzbl 0x1(%rbx),%ecx
  402b21:	b8 4b 00 00 00       	mov    $0x4b,%eax
  402b26:	29 c8                	sub    %ecx,%eax
  402b28:	75 17                	jne    402b41 <submitr+0x6f6>
  402b2a:	0f b6 4b 02          	movzbl 0x2(%rbx),%ecx
  402b2e:	b8 0a 00 00 00       	mov    $0xa,%eax
  402b33:	29 c8                	sub    %ecx,%eax
  402b35:	75 0a                	jne    402b41 <submitr+0x6f6>
  402b37:	0f b6 43 03          	movzbl 0x3(%rbx),%eax
  402b3b:	f7 d8                	neg    %eax
  402b3d:	eb 02                	jmp    402b41 <submitr+0x6f6>
  402b3f:	89 d0                	mov    %edx,%eax
  402b41:	85 c0                	test   %eax,%eax
  402b43:	74 40                	je     402b85 <submitr+0x73a>
  402b45:	bf 30 38 40 00       	mov    $0x403830,%edi
  402b4a:	b9 05 00 00 00       	mov    $0x5,%ecx
  402b4f:	48 89 de             	mov    %rbx,%rsi
  402b52:	f3 a6                	repz cmpsb %es:(%rdi),%ds:(%rsi)
  402b54:	0f 97 c0             	seta   %al
  402b57:	0f 92 c1             	setb   %cl
  402b5a:	29 c8                	sub    %ecx,%eax
  402b5c:	0f be c0             	movsbl %al,%eax
  402b5f:	85 c0                	test   %eax,%eax
  402b61:	74 2e                	je     402b91 <submitr+0x746>
  402b63:	85 d2                	test   %edx,%edx
  402b65:	75 13                	jne    402b7a <submitr+0x72f>
  402b67:	0f b6 43 01          	movzbl 0x1(%rbx),%eax
  402b6b:	ba 4b 00 00 00       	mov    $0x4b,%edx
  402b70:	29 c2                	sub    %eax,%edx
  402b72:	75 06                	jne    402b7a <submitr+0x72f>
  402b74:	0f b6 53 02          	movzbl 0x2(%rbx),%edx
  402b78:	f7 da                	neg    %edx
  402b7a:	85 d2                	test   %edx,%edx
  402b7c:	75 0e                	jne    402b8c <submitr+0x741>
  402b7e:	b8 00 00 00 00       	mov    $0x0,%eax
  402b83:	eb 0c                	jmp    402b91 <submitr+0x746>
  402b85:	b8 00 00 00 00       	mov    $0x0,%eax
  402b8a:	eb 05                	jmp    402b91 <submitr+0x746>
  402b8c:	b8 ff ff ff ff       	mov    $0xffffffff,%eax
  402b91:	48 8b 9c 24 48 a0 00 	mov    0xa048(%rsp),%rbx
  402b98:	00 
  402b99:	64 48 33 1c 25 28 00 	xor    %fs:0x28,%rbx
  402ba0:	00 00 
  402ba2:	74 05                	je     402ba9 <submitr+0x75e>
  402ba4:	e8 47 e1 ff ff       	callq  400cf0 <__stack_chk_fail@plt>
  402ba9:	48 81 c4 58 a0 00 00 	add    $0xa058,%rsp
  402bb0:	5b                   	pop    %rbx
  402bb1:	5d                   	pop    %rbp
  402bb2:	41 5c                	pop    %r12
  402bb4:	41 5d                	pop    %r13
  402bb6:	41 5e                	pop    %r14
  402bb8:	41 5f                	pop    %r15
  402bba:	c3                   	retq   

0000000000402bbb <init_timeout>:
  402bbb:	85 ff                	test   %edi,%edi
  402bbd:	74 23                	je     402be2 <init_timeout+0x27>
  402bbf:	53                   	push   %rbx
  402bc0:	89 fb                	mov    %edi,%ebx
  402bc2:	85 ff                	test   %edi,%edi
  402bc4:	79 05                	jns    402bcb <init_timeout+0x10>
  402bc6:	bb 00 00 00 00       	mov    $0x0,%ebx
  402bcb:	be 7f 21 40 00       	mov    $0x40217f,%esi
  402bd0:	bf 0e 00 00 00       	mov    $0xe,%edi
  402bd5:	e8 86 e1 ff ff       	callq  400d60 <signal@plt>
  402bda:	89 df                	mov    %ebx,%edi
  402bdc:	e8 3f e1 ff ff       	callq  400d20 <alarm@plt>
  402be1:	5b                   	pop    %rbx
  402be2:	f3 c3                	repz retq 

0000000000402be4 <init_driver>:
  402be4:	55                   	push   %rbp
  402be5:	53                   	push   %rbx
  402be6:	48 83 ec 28          	sub    $0x28,%rsp
  402bea:	48 89 fd             	mov    %rdi,%rbp
  402bed:	64 48 8b 04 25 28 00 	mov    %fs:0x28,%rax
  402bf4:	00 00 
  402bf6:	48 89 44 24 18       	mov    %rax,0x18(%rsp)
  402bfb:	31 c0                	xor    %eax,%eax
  402bfd:	be 01 00 00 00       	mov    $0x1,%esi
  402c02:	bf 0d 00 00 00       	mov    $0xd,%edi
  402c07:	e8 54 e1 ff ff       	callq  400d60 <signal@plt>
  402c0c:	be 01 00 00 00       	mov    $0x1,%esi
  402c11:	bf 1d 00 00 00       	mov    $0x1d,%edi
  402c16:	e8 45 e1 ff ff       	callq  400d60 <signal@plt>
  402c1b:	be 01 00 00 00       	mov    $0x1,%esi
  402c20:	bf 1d 00 00 00       	mov    $0x1d,%edi
  402c25:	e8 36 e1 ff ff       	callq  400d60 <signal@plt>
  402c2a:	ba 00 00 00 00       	mov    $0x0,%edx
  402c2f:	be 01 00 00 00       	mov    $0x1,%esi
  402c34:	bf 02 00 00 00       	mov    $0x2,%edi
  402c39:	e8 52 e2 ff ff       	callq  400e90 <socket@plt>
  402c3e:	85 c0                	test   %eax,%eax
  402c40:	79 4f                	jns    402c91 <init_driver+0xad>
  402c42:	48 b8 45 72 72 6f 72 	movabs $0x43203a726f727245,%rax
  402c49:	3a 20 43 
  402c4c:	48 89 45 00          	mov    %rax,0x0(%rbp)
  402c50:	48 b8 6c 69 65 6e 74 	movabs $0x6e7520746e65696c,%rax
  402c57:	20 75 6e 
  402c5a:	48 89 45 08          	mov    %rax,0x8(%rbp)
  402c5e:	48 b8 61 62 6c 65 20 	movabs $0x206f7420656c6261,%rax
  402c65:	74 6f 20 
  402c68:	48 89 45 10          	mov    %rax,0x10(%rbp)
  402c6c:	48 b8 63 72 65 61 74 	movabs $0x7320657461657263,%rax
  402c73:	65 20 73 
  402c76:	48 89 45 18          	mov    %rax,0x18(%rbp)
  402c7a:	c7 45 20 6f 63 6b 65 	movl   $0x656b636f,0x20(%rbp)
  402c81:	66 c7 45 24 74 00    	movw   $0x74,0x24(%rbp)
  402c87:	b8 ff ff ff ff       	mov    $0xffffffff,%eax
  402c8c:	e9 2a 01 00 00       	jmpq   402dbb <init_driver+0x1d7>
  402c91:	89 c3                	mov    %eax,%ebx
  402c93:	bf 35 38 40 00       	mov    $0x403835,%edi
  402c98:	e8 d3 e0 ff ff       	callq  400d70 <gethostbyname@plt>
  402c9d:	48 85 c0             	test   %rax,%rax
  402ca0:	75 68                	jne    402d0a <init_driver+0x126>
  402ca2:	48 b8 45 72 72 6f 72 	movabs $0x44203a726f727245,%rax
  402ca9:	3a 20 44 
  402cac:	48 89 45 00          	mov    %rax,0x0(%rbp)
  402cb0:	48 b8 4e 53 20 69 73 	movabs $0x6e7520736920534e,%rax
  402cb7:	20 75 6e 
  402cba:	48 89 45 08          	mov    %rax,0x8(%rbp)
  402cbe:	48 b8 61 62 6c 65 20 	movabs $0x206f7420656c6261,%rax
  402cc5:	74 6f 20 
  402cc8:	48 89 45 10          	mov    %rax,0x10(%rbp)
  402ccc:	48 b8 72 65 73 6f 6c 	movabs $0x2065766c6f736572,%rax
  402cd3:	76 65 20 
  402cd6:	48 89 45 18          	mov    %rax,0x18(%rbp)
  402cda:	48 b8 73 65 72 76 65 	movabs $0x6120726576726573,%rax
  402ce1:	72 20 61 
  402ce4:	48 89 45 20          	mov    %rax,0x20(%rbp)
  402ce8:	c7 45 28 64 64 72 65 	movl   $0x65726464,0x28(%rbp)
  402cef:	66 c7 45 2c 73 73    	movw   $0x7373,0x2c(%rbp)
  402cf5:	c6 45 2e 00          	movb   $0x0,0x2e(%rbp)
  402cf9:	89 df                	mov    %ebx,%edi
  402cfb:	e8 30 e0 ff ff       	callq  400d30 <close@plt>
  402d00:	b8 ff ff ff ff       	mov    $0xffffffff,%eax
  402d05:	e9 b1 00 00 00       	jmpq   402dbb <init_driver+0x1d7>
  402d0a:	48 c7 04 24 00 00 00 	movq   $0x0,(%rsp)
  402d11:	00 
  402d12:	48 c7 44 24 08 00 00 	movq   $0x0,0x8(%rsp)
  402d19:	00 00 
  402d1b:	66 c7 04 24 02 00    	movw   $0x2,(%rsp)
  402d21:	48 63 50 14          	movslq 0x14(%rax),%rdx
  402d25:	48 8b 40 18          	mov    0x18(%rax),%rax
  402d29:	48 8b 30             	mov    (%rax),%rsi
  402d2c:	48 8d 7c 24 04       	lea    0x4(%rsp),%rdi
  402d31:	b9 0c 00 00 00       	mov    $0xc,%ecx
  402d36:	e8 45 e0 ff ff       	callq  400d80 <__memmove_chk@plt>
  402d3b:	66 c7 44 24 02 3c 9a 	movw   $0x9a3c,0x2(%rsp)
  402d42:	ba 10 00 00 00       	mov    $0x10,%edx
  402d47:	48 89 e6             	mov    %rsp,%rsi
  402d4a:	89 df                	mov    %ebx,%edi
  402d4c:	e8 0f e1 ff ff       	callq  400e60 <connect@plt>
  402d51:	85 c0                	test   %eax,%eax
  402d53:	79 50                	jns    402da5 <init_driver+0x1c1>
  402d55:	48 b8 45 72 72 6f 72 	movabs $0x55203a726f727245,%rax
  402d5c:	3a 20 55 
  402d5f:	48 89 45 00          	mov    %rax,0x0(%rbp)
  402d63:	48 b8 6e 61 62 6c 65 	movabs $0x6f7420656c62616e,%rax
  402d6a:	20 74 6f 
  402d6d:	48 89 45 08          	mov    %rax,0x8(%rbp)
  402d71:	48 b8 20 63 6f 6e 6e 	movabs $0x7463656e6e6f6320,%rax
  402d78:	65 63 74 
  402d7b:	48 89 45 10          	mov    %rax,0x10(%rbp)
  402d7f:	48 b8 20 74 6f 20 73 	movabs $0x76726573206f7420,%rax
  402d86:	65 72 76 
  402d89:	48 89 45 18          	mov    %rax,0x18(%rbp)
  402d8d:	66 c7 45 20 65 72    	movw   $0x7265,0x20(%rbp)
  402d93:	c6 45 22 00          	movb   $0x0,0x22(%rbp)
  402d97:	89 df                	mov    %ebx,%edi
  402d99:	e8 92 df ff ff       	callq  400d30 <close@plt>
  402d9e:	b8 ff ff ff ff       	mov    $0xffffffff,%eax
  402da3:	eb 16                	jmp    402dbb <init_driver+0x1d7>
  402da5:	89 df                	mov    %ebx,%edi
  402da7:	e8 84 df ff ff       	callq  400d30 <close@plt>
  402dac:	66 c7 45 00 4f 4b    	movw   $0x4b4f,0x0(%rbp)
  402db2:	c6 45 02 00          	movb   $0x0,0x2(%rbp)
  402db6:	b8 00 00 00 00       	mov    $0x0,%eax
  402dbb:	48 8b 4c 24 18       	mov    0x18(%rsp),%rcx
  402dc0:	64 48 33 0c 25 28 00 	xor    %fs:0x28,%rcx
  402dc7:	00 00 
  402dc9:	74 05                	je     402dd0 <init_driver+0x1ec>
  402dcb:	e8 20 df ff ff       	callq  400cf0 <__stack_chk_fail@plt>
  402dd0:	48 83 c4 28          	add    $0x28,%rsp
  402dd4:	5b                   	pop    %rbx
  402dd5:	5d                   	pop    %rbp
  402dd6:	c3                   	retq   

0000000000402dd7 <driver_post>:
  402dd7:	53                   	push   %rbx
  402dd8:	4c 89 cb             	mov    %r9,%rbx
  402ddb:	45 85 c0             	test   %r8d,%r8d
  402dde:	74 27                	je     402e07 <driver_post+0x30>
  402de0:	48 89 ca             	mov    %rcx,%rdx
  402de3:	be 43 38 40 00       	mov    $0x403843,%esi
  402de8:	bf 01 00 00 00       	mov    $0x1,%edi
  402ded:	b8 00 00 00 00       	mov    $0x0,%eax
  402df2:	e8 09 e0 ff ff       	callq  400e00 <__printf_chk@plt>
  402df7:	66 c7 03 4f 4b       	movw   $0x4b4f,(%rbx)
  402dfc:	c6 43 02 00          	movb   $0x0,0x2(%rbx)
  402e00:	b8 00 00 00 00       	mov    $0x0,%eax
  402e05:	eb 3f                	jmp    402e46 <driver_post+0x6f>
  402e07:	48 85 ff             	test   %rdi,%rdi
  402e0a:	74 2c                	je     402e38 <driver_post+0x61>
  402e0c:	80 3f 00             	cmpb   $0x0,(%rdi)
  402e0f:	74 27                	je     402e38 <driver_post+0x61>
  402e11:	48 83 ec 08          	sub    $0x8,%rsp
  402e15:	41 51                	push   %r9
  402e17:	49 89 c9             	mov    %rcx,%r9
  402e1a:	49 89 d0             	mov    %rdx,%r8
  402e1d:	48 89 f9             	mov    %rdi,%rcx
  402e20:	48 89 f2             	mov    %rsi,%rdx
  402e23:	be 9a 3c 00 00       	mov    $0x3c9a,%esi
  402e28:	bf 35 38 40 00       	mov    $0x403835,%edi
  402e2d:	e8 19 f6 ff ff       	callq  40244b <submitr>
  402e32:	48 83 c4 10          	add    $0x10,%rsp
  402e36:	eb 0e                	jmp    402e46 <driver_post+0x6f>
  402e38:	66 c7 03 4f 4b       	movw   $0x4b4f,(%rbx)
  402e3d:	c6 43 02 00          	movb   $0x0,0x2(%rbx)
  402e41:	b8 00 00 00 00       	mov    $0x0,%eax
  402e46:	5b                   	pop    %rbx
  402e47:	c3                   	retq   

0000000000402e48 <check>:
  402e48:	89 f8                	mov    %edi,%eax
  402e4a:	c1 e8 1c             	shr    $0x1c,%eax
  402e4d:	85 c0                	test   %eax,%eax
  402e4f:	74 1d                	je     402e6e <check+0x26>
  402e51:	b9 00 00 00 00       	mov    $0x0,%ecx
  402e56:	eb 0b                	jmp    402e63 <check+0x1b>
  402e58:	89 f8                	mov    %edi,%eax
  402e5a:	d3 e8                	shr    %cl,%eax
  402e5c:	3c 0a                	cmp    $0xa,%al
  402e5e:	74 14                	je     402e74 <check+0x2c>
  402e60:	83 c1 08             	add    $0x8,%ecx
  402e63:	83 f9 1f             	cmp    $0x1f,%ecx
  402e66:	7e f0                	jle    402e58 <check+0x10>
  402e68:	b8 01 00 00 00       	mov    $0x1,%eax
  402e6d:	c3                   	retq   
  402e6e:	b8 00 00 00 00       	mov    $0x0,%eax
  402e73:	c3                   	retq   
  402e74:	b8 00 00 00 00       	mov    $0x0,%eax
  402e79:	c3                   	retq   

0000000000402e7a <gencookie>:
  402e7a:	53                   	push   %rbx
  402e7b:	83 c7 01             	add    $0x1,%edi
  402e7e:	e8 1d de ff ff       	callq  400ca0 <srandom@plt>
  402e83:	e8 38 df ff ff       	callq  400dc0 <random@plt>
  402e88:	89 c3                	mov    %eax,%ebx
  402e8a:	89 c7                	mov    %eax,%edi
  402e8c:	e8 b7 ff ff ff       	callq  402e48 <check>
  402e91:	85 c0                	test   %eax,%eax
  402e93:	74 ee                	je     402e83 <gencookie+0x9>
  402e95:	89 d8                	mov    %ebx,%eax
  402e97:	5b                   	pop    %rbx
  402e98:	c3                   	retq   
  402e99:	0f 1f 80 00 00 00 00 	nopl   0x0(%rax)

0000000000402ea0 <__libc_csu_init>:
  402ea0:	41 57                	push   %r15
  402ea2:	41 56                	push   %r14
  402ea4:	41 89 ff             	mov    %edi,%r15d
  402ea7:	41 55                	push   %r13
  402ea9:	41 54                	push   %r12
  402eab:	4c 8d 25 5e 1f 20 00 	lea    0x201f5e(%rip),%r12        # 604e10 <__frame_dummy_init_array_entry>
  402eb2:	55                   	push   %rbp
  402eb3:	48 8d 2d 5e 1f 20 00 	lea    0x201f5e(%rip),%rbp        # 604e18 <__do_global_dtors_aux_fini_array_entry>
  402eba:	53                   	push   %rbx
  402ebb:	49 89 f6             	mov    %rsi,%r14
  402ebe:	49 89 d5             	mov    %rdx,%r13
  402ec1:	4c 29 e5             	sub    %r12,%rbp
  402ec4:	48 83 ec 08          	sub    $0x8,%rsp
  402ec8:	48 c1 fd 03          	sar    $0x3,%rbp
  402ecc:	e8 77 dd ff ff       	callq  400c48 <_init>
  402ed1:	48 85 ed             	test   %rbp,%rbp
  402ed4:	74 20                	je     402ef6 <__libc_csu_init+0x56>
  402ed6:	31 db                	xor    %ebx,%ebx
  402ed8:	0f 1f 84 00 00 00 00 	nopl   0x0(%rax,%rax,1)
  402edf:	00 
  402ee0:	4c 89 ea             	mov    %r13,%rdx
  402ee3:	4c 89 f6             	mov    %r14,%rsi
  402ee6:	44 89 ff             	mov    %r15d,%edi
  402ee9:	41 ff 14 dc          	callq  *(%r12,%rbx,8)
  402eed:	48 83 c3 01          	add    $0x1,%rbx
  402ef1:	48 39 eb             	cmp    %rbp,%rbx
  402ef4:	75 ea                	jne    402ee0 <__libc_csu_init+0x40>
  402ef6:	48 83 c4 08          	add    $0x8,%rsp
  402efa:	5b                   	pop    %rbx
  402efb:	5d                   	pop    %rbp
  402efc:	41 5c                	pop    %r12
  402efe:	41 5d                	pop    %r13
  402f00:	41 5e                	pop    %r14
  402f02:	41 5f                	pop    %r15
  402f04:	c3                   	retq   
  402f05:	90                   	nop
  402f06:	66 2e 0f 1f 84 00 00 	nopw   %cs:0x0(%rax,%rax,1)
  402f0d:	00 00 00 

0000000000402f10 <__libc_csu_fini>:
  402f10:	f3 c3                	repz retq 

Disassembly of section .fini:

0000000000402f14 <_fini>:
  402f14:	48 83 ec 08          	sub    $0x8,%rsp
  402f18:	48 83 c4 08          	add    $0x8,%rsp
  402f1c:	c3                   	retq   
