
rtarget:     file format elf64-x86-64


Disassembly of section .init:

0000000000400c48 <_init>:
  400c48:	48 83 ec 08          	sub    $0x8,%rsp
  400c4c:	48 8b 05 a5 43 20 00 	mov    0x2043a5(%rip),%rax        # 604ff8 <__gmon_start__>
  400c53:	48 85 c0             	test   %rax,%rax
  400c56:	74 05                	je     400c5d <_init+0x15>
  400c58:	e8 43 02 00 00       	callq  400ea0 <__gmon_start__@plt>
  400c5d:	48 83 c4 08          	add    $0x8,%rsp
  400c61:	c3                   	retq   

Disassembly of section .plt:

0000000000400c70 <.plt>:
  400c70:	ff 35 92 43 20 00    	pushq  0x204392(%rip)        # 605008 <_GLOBAL_OFFSET_TABLE_+0x8>
  400c76:	ff 25 94 43 20 00    	jmpq   *0x204394(%rip)        # 605010 <_GLOBAL_OFFSET_TABLE_+0x10>
  400c7c:	0f 1f 40 00          	nopl   0x0(%rax)

0000000000400c80 <strcasecmp@plt>:
  400c80:	ff 25 92 43 20 00    	jmpq   *0x204392(%rip)        # 605018 <strcasecmp@GLIBC_2.2.5>
  400c86:	68 00 00 00 00       	pushq  $0x0
  400c8b:	e9 e0 ff ff ff       	jmpq   400c70 <.plt>

0000000000400c90 <__errno_location@plt>:
  400c90:	ff 25 8a 43 20 00    	jmpq   *0x20438a(%rip)        # 605020 <__errno_location@GLIBC_2.2.5>
  400c96:	68 01 00 00 00       	pushq  $0x1
  400c9b:	e9 d0 ff ff ff       	jmpq   400c70 <.plt>

0000000000400ca0 <srandom@plt>:
  400ca0:	ff 25 82 43 20 00    	jmpq   *0x204382(%rip)        # 605028 <srandom@GLIBC_2.2.5>
  400ca6:	68 02 00 00 00       	pushq  $0x2
  400cab:	e9 c0 ff ff ff       	jmpq   400c70 <.plt>

0000000000400cb0 <strncmp@plt>:
  400cb0:	ff 25 7a 43 20 00    	jmpq   *0x20437a(%rip)        # 605030 <strncmp@GLIBC_2.2.5>
  400cb6:	68 03 00 00 00       	pushq  $0x3
  400cbb:	e9 b0 ff ff ff       	jmpq   400c70 <.plt>

0000000000400cc0 <strcpy@plt>:
  400cc0:	ff 25 72 43 20 00    	jmpq   *0x204372(%rip)        # 605038 <strcpy@GLIBC_2.2.5>
  400cc6:	68 04 00 00 00       	pushq  $0x4
  400ccb:	e9 a0 ff ff ff       	jmpq   400c70 <.plt>

0000000000400cd0 <puts@plt>:
  400cd0:	ff 25 6a 43 20 00    	jmpq   *0x20436a(%rip)        # 605040 <puts@GLIBC_2.2.5>
  400cd6:	68 05 00 00 00       	pushq  $0x5
  400cdb:	e9 90 ff ff ff       	jmpq   400c70 <.plt>

0000000000400ce0 <write@plt>:
  400ce0:	ff 25 62 43 20 00    	jmpq   *0x204362(%rip)        # 605048 <write@GLIBC_2.2.5>
  400ce6:	68 06 00 00 00       	pushq  $0x6
  400ceb:	e9 80 ff ff ff       	jmpq   400c70 <.plt>

0000000000400cf0 <__stack_chk_fail@plt>:
  400cf0:	ff 25 5a 43 20 00    	jmpq   *0x20435a(%rip)        # 605050 <__stack_chk_fail@GLIBC_2.4>
  400cf6:	68 07 00 00 00       	pushq  $0x7
  400cfb:	e9 70 ff ff ff       	jmpq   400c70 <.plt>

0000000000400d00 <mmap@plt>:
  400d00:	ff 25 52 43 20 00    	jmpq   *0x204352(%rip)        # 605058 <mmap@GLIBC_2.2.5>
  400d06:	68 08 00 00 00       	pushq  $0x8
  400d0b:	e9 60 ff ff ff       	jmpq   400c70 <.plt>

0000000000400d10 <memset@plt>:
  400d10:	ff 25 4a 43 20 00    	jmpq   *0x20434a(%rip)        # 605060 <memset@GLIBC_2.2.5>
  400d16:	68 09 00 00 00       	pushq  $0x9
  400d1b:	e9 50 ff ff ff       	jmpq   400c70 <.plt>

0000000000400d20 <alarm@plt>:
  400d20:	ff 25 42 43 20 00    	jmpq   *0x204342(%rip)        # 605068 <alarm@GLIBC_2.2.5>
  400d26:	68 0a 00 00 00       	pushq  $0xa
  400d2b:	e9 40 ff ff ff       	jmpq   400c70 <.plt>

0000000000400d30 <close@plt>:
  400d30:	ff 25 3a 43 20 00    	jmpq   *0x20433a(%rip)        # 605070 <close@GLIBC_2.2.5>
  400d36:	68 0b 00 00 00       	pushq  $0xb
  400d3b:	e9 30 ff ff ff       	jmpq   400c70 <.plt>

0000000000400d40 <read@plt>:
  400d40:	ff 25 32 43 20 00    	jmpq   *0x204332(%rip)        # 605078 <read@GLIBC_2.2.5>
  400d46:	68 0c 00 00 00       	pushq  $0xc
  400d4b:	e9 20 ff ff ff       	jmpq   400c70 <.plt>

0000000000400d50 <__libc_start_main@plt>:
  400d50:	ff 25 2a 43 20 00    	jmpq   *0x20432a(%rip)        # 605080 <__libc_start_main@GLIBC_2.2.5>
  400d56:	68 0d 00 00 00       	pushq  $0xd
  400d5b:	e9 10 ff ff ff       	jmpq   400c70 <.plt>

0000000000400d60 <signal@plt>:
  400d60:	ff 25 22 43 20 00    	jmpq   *0x204322(%rip)        # 605088 <signal@GLIBC_2.2.5>
  400d66:	68 0e 00 00 00       	pushq  $0xe
  400d6b:	e9 00 ff ff ff       	jmpq   400c70 <.plt>

0000000000400d70 <gethostbyname@plt>:
  400d70:	ff 25 1a 43 20 00    	jmpq   *0x20431a(%rip)        # 605090 <gethostbyname@GLIBC_2.2.5>
  400d76:	68 0f 00 00 00       	pushq  $0xf
  400d7b:	e9 f0 fe ff ff       	jmpq   400c70 <.plt>

0000000000400d80 <__memmove_chk@plt>:
  400d80:	ff 25 12 43 20 00    	jmpq   *0x204312(%rip)        # 605098 <__memmove_chk@GLIBC_2.3.4>
  400d86:	68 10 00 00 00       	pushq  $0x10
  400d8b:	e9 e0 fe ff ff       	jmpq   400c70 <.plt>

0000000000400d90 <strtol@plt>:
  400d90:	ff 25 0a 43 20 00    	jmpq   *0x20430a(%rip)        # 6050a0 <strtol@GLIBC_2.2.5>
  400d96:	68 11 00 00 00       	pushq  $0x11
  400d9b:	e9 d0 fe ff ff       	jmpq   400c70 <.plt>

0000000000400da0 <memcpy@plt>:
  400da0:	ff 25 02 43 20 00    	jmpq   *0x204302(%rip)        # 6050a8 <memcpy@GLIBC_2.14>
  400da6:	68 12 00 00 00       	pushq  $0x12
  400dab:	e9 c0 fe ff ff       	jmpq   400c70 <.plt>

0000000000400db0 <time@plt>:
  400db0:	ff 25 fa 42 20 00    	jmpq   *0x2042fa(%rip)        # 6050b0 <time@GLIBC_2.2.5>
  400db6:	68 13 00 00 00       	pushq  $0x13
  400dbb:	e9 b0 fe ff ff       	jmpq   400c70 <.plt>

0000000000400dc0 <random@plt>:
  400dc0:	ff 25 f2 42 20 00    	jmpq   *0x2042f2(%rip)        # 6050b8 <random@GLIBC_2.2.5>
  400dc6:	68 14 00 00 00       	pushq  $0x14
  400dcb:	e9 a0 fe ff ff       	jmpq   400c70 <.plt>

0000000000400dd0 <_IO_getc@plt>:
  400dd0:	ff 25 ea 42 20 00    	jmpq   *0x2042ea(%rip)        # 6050c0 <_IO_getc@GLIBC_2.2.5>
  400dd6:	68 15 00 00 00       	pushq  $0x15
  400ddb:	e9 90 fe ff ff       	jmpq   400c70 <.plt>

0000000000400de0 <__isoc99_sscanf@plt>:
  400de0:	ff 25 e2 42 20 00    	jmpq   *0x2042e2(%rip)        # 6050c8 <__isoc99_sscanf@GLIBC_2.7>
  400de6:	68 16 00 00 00       	pushq  $0x16
  400deb:	e9 80 fe ff ff       	jmpq   400c70 <.plt>

0000000000400df0 <munmap@plt>:
  400df0:	ff 25 da 42 20 00    	jmpq   *0x2042da(%rip)        # 6050d0 <munmap@GLIBC_2.2.5>
  400df6:	68 17 00 00 00       	pushq  $0x17
  400dfb:	e9 70 fe ff ff       	jmpq   400c70 <.plt>

0000000000400e00 <__printf_chk@plt>:
  400e00:	ff 25 d2 42 20 00    	jmpq   *0x2042d2(%rip)        # 6050d8 <__printf_chk@GLIBC_2.3.4>
  400e06:	68 18 00 00 00       	pushq  $0x18
  400e0b:	e9 60 fe ff ff       	jmpq   400c70 <.plt>

0000000000400e10 <fopen@plt>:
  400e10:	ff 25 ca 42 20 00    	jmpq   *0x2042ca(%rip)        # 6050e0 <fopen@GLIBC_2.2.5>
  400e16:	68 19 00 00 00       	pushq  $0x19
  400e1b:	e9 50 fe ff ff       	jmpq   400c70 <.plt>

0000000000400e20 <getopt@plt>:
  400e20:	ff 25 c2 42 20 00    	jmpq   *0x2042c2(%rip)        # 6050e8 <getopt@GLIBC_2.2.5>
  400e26:	68 1a 00 00 00       	pushq  $0x1a
  400e2b:	e9 40 fe ff ff       	jmpq   400c70 <.plt>

0000000000400e30 <strtoul@plt>:
  400e30:	ff 25 ba 42 20 00    	jmpq   *0x2042ba(%rip)        # 6050f0 <strtoul@GLIBC_2.2.5>
  400e36:	68 1b 00 00 00       	pushq  $0x1b
  400e3b:	e9 30 fe ff ff       	jmpq   400c70 <.plt>

0000000000400e40 <gethostname@plt>:
  400e40:	ff 25 b2 42 20 00    	jmpq   *0x2042b2(%rip)        # 6050f8 <gethostname@GLIBC_2.2.5>
  400e46:	68 1c 00 00 00       	pushq  $0x1c
  400e4b:	e9 20 fe ff ff       	jmpq   400c70 <.plt>

0000000000400e50 <exit@plt>:
  400e50:	ff 25 aa 42 20 00    	jmpq   *0x2042aa(%rip)        # 605100 <exit@GLIBC_2.2.5>
  400e56:	68 1d 00 00 00       	pushq  $0x1d
  400e5b:	e9 10 fe ff ff       	jmpq   400c70 <.plt>

0000000000400e60 <connect@plt>:
  400e60:	ff 25 a2 42 20 00    	jmpq   *0x2042a2(%rip)        # 605108 <connect@GLIBC_2.2.5>
  400e66:	68 1e 00 00 00       	pushq  $0x1e
  400e6b:	e9 00 fe ff ff       	jmpq   400c70 <.plt>

0000000000400e70 <__fprintf_chk@plt>:
  400e70:	ff 25 9a 42 20 00    	jmpq   *0x20429a(%rip)        # 605110 <__fprintf_chk@GLIBC_2.3.4>
  400e76:	68 1f 00 00 00       	pushq  $0x1f
  400e7b:	e9 f0 fd ff ff       	jmpq   400c70 <.plt>

0000000000400e80 <__sprintf_chk@plt>:
  400e80:	ff 25 92 42 20 00    	jmpq   *0x204292(%rip)        # 605118 <__sprintf_chk@GLIBC_2.3.4>
  400e86:	68 20 00 00 00       	pushq  $0x20
  400e8b:	e9 e0 fd ff ff       	jmpq   400c70 <.plt>

0000000000400e90 <socket@plt>:
  400e90:	ff 25 8a 42 20 00    	jmpq   *0x20428a(%rip)        # 605120 <socket@GLIBC_2.2.5>
  400e96:	68 21 00 00 00       	pushq  $0x21
  400e9b:	e9 d0 fd ff ff       	jmpq   400c70 <.plt>

Disassembly of section .plt.got:

0000000000400ea0 <__gmon_start__@plt>:
  400ea0:	ff 25 52 41 20 00    	jmpq   *0x204152(%rip)        # 604ff8 <__gmon_start__>
  400ea6:	66 90                	xchg   %ax,%ax

Disassembly of section .text:

0000000000400eb0 <_start>:
  400eb0:	31 ed                	xor    %ebp,%ebp
  400eb2:	49 89 d1             	mov    %rdx,%r9
  400eb5:	5e                   	pop    %rsi
  400eb6:	48 89 e2             	mov    %rsp,%rdx
  400eb9:	48 83 e4 f0          	and    $0xfffffffffffffff0,%rsp
  400ebd:	50                   	push   %rax
  400ebe:	54                   	push   %rsp
  400ebf:	49 c7 c0 10 30 40 00 	mov    $0x403010,%r8
  400ec6:	48 c7 c1 a0 2f 40 00 	mov    $0x402fa0,%rcx
  400ecd:	48 c7 c7 b5 11 40 00 	mov    $0x4011b5,%rdi
  400ed4:	e8 77 fe ff ff       	callq  400d50 <__libc_start_main@plt>
  400ed9:	f4                   	hlt    
  400eda:	66 0f 1f 44 00 00    	nopw   0x0(%rax,%rax,1)

0000000000400ee0 <deregister_tm_clones>:
  400ee0:	b8 b7 54 60 00       	mov    $0x6054b7,%eax
  400ee5:	55                   	push   %rbp
  400ee6:	48 2d b0 54 60 00    	sub    $0x6054b0,%rax
  400eec:	48 83 f8 0e          	cmp    $0xe,%rax
  400ef0:	48 89 e5             	mov    %rsp,%rbp
  400ef3:	76 1b                	jbe    400f10 <deregister_tm_clones+0x30>
  400ef5:	b8 00 00 00 00       	mov    $0x0,%eax
  400efa:	48 85 c0             	test   %rax,%rax
  400efd:	74 11                	je     400f10 <deregister_tm_clones+0x30>
  400eff:	5d                   	pop    %rbp
  400f00:	bf b0 54 60 00       	mov    $0x6054b0,%edi
  400f05:	ff e0                	jmpq   *%rax
  400f07:	66 0f 1f 84 00 00 00 	nopw   0x0(%rax,%rax,1)
  400f0e:	00 00 
  400f10:	5d                   	pop    %rbp
  400f11:	c3                   	retq   
  400f12:	0f 1f 40 00          	nopl   0x0(%rax)
  400f16:	66 2e 0f 1f 84 00 00 	nopw   %cs:0x0(%rax,%rax,1)
  400f1d:	00 00 00 

0000000000400f20 <register_tm_clones>:
  400f20:	be b0 54 60 00       	mov    $0x6054b0,%esi
  400f25:	55                   	push   %rbp
  400f26:	48 81 ee b0 54 60 00 	sub    $0x6054b0,%rsi
  400f2d:	48 c1 fe 03          	sar    $0x3,%rsi
  400f31:	48 89 e5             	mov    %rsp,%rbp
  400f34:	48 89 f0             	mov    %rsi,%rax
  400f37:	48 c1 e8 3f          	shr    $0x3f,%rax
  400f3b:	48 01 c6             	add    %rax,%rsi
  400f3e:	48 d1 fe             	sar    %rsi
  400f41:	74 15                	je     400f58 <register_tm_clones+0x38>
  400f43:	b8 00 00 00 00       	mov    $0x0,%eax
  400f48:	48 85 c0             	test   %rax,%rax
  400f4b:	74 0b                	je     400f58 <register_tm_clones+0x38>
  400f4d:	5d                   	pop    %rbp
  400f4e:	bf b0 54 60 00       	mov    $0x6054b0,%edi
  400f53:	ff e0                	jmpq   *%rax
  400f55:	0f 1f 00             	nopl   (%rax)
  400f58:	5d                   	pop    %rbp
  400f59:	c3                   	retq   
  400f5a:	66 0f 1f 44 00 00    	nopw   0x0(%rax,%rax,1)

0000000000400f60 <__do_global_dtors_aux>:
  400f60:	80 3d 81 45 20 00 00 	cmpb   $0x0,0x204581(%rip)        # 6054e8 <completed.7585>
  400f67:	75 11                	jne    400f7a <__do_global_dtors_aux+0x1a>
  400f69:	55                   	push   %rbp
  400f6a:	48 89 e5             	mov    %rsp,%rbp
  400f6d:	e8 6e ff ff ff       	callq  400ee0 <deregister_tm_clones>
  400f72:	5d                   	pop    %rbp
  400f73:	c6 05 6e 45 20 00 01 	movb   $0x1,0x20456e(%rip)        # 6054e8 <completed.7585>
  400f7a:	f3 c3                	repz retq 
  400f7c:	0f 1f 40 00          	nopl   0x0(%rax)

0000000000400f80 <frame_dummy>:
  400f80:	bf 20 4e 60 00       	mov    $0x604e20,%edi
  400f85:	48 83 3f 00          	cmpq   $0x0,(%rdi)
  400f89:	75 05                	jne    400f90 <frame_dummy+0x10>
  400f8b:	eb 93                	jmp    400f20 <register_tm_clones>
  400f8d:	0f 1f 00             	nopl   (%rax)
  400f90:	b8 00 00 00 00       	mov    $0x0,%eax
  400f95:	48 85 c0             	test   %rax,%rax
  400f98:	74 f1                	je     400f8b <frame_dummy+0xb>
  400f9a:	55                   	push   %rbp
  400f9b:	48 89 e5             	mov    %rsp,%rbp
  400f9e:	ff d0                	callq  *%rax
  400fa0:	5d                   	pop    %rbp
  400fa1:	e9 7a ff ff ff       	jmpq   400f20 <register_tm_clones>

0000000000400fa6 <usage>:
  400fa6:	48 83 ec 08          	sub    $0x8,%rsp
  400faa:	48 89 fa             	mov    %rdi,%rdx
  400fad:	83 3d 74 45 20 00 00 	cmpl   $0x0,0x204574(%rip)        # 605528 <is_checker>
  400fb4:	74 3e                	je     400ff4 <usage+0x4e>
  400fb6:	be 28 30 40 00       	mov    $0x403028,%esi
  400fbb:	bf 01 00 00 00       	mov    $0x1,%edi
  400fc0:	b8 00 00 00 00       	mov    $0x0,%eax
  400fc5:	e8 36 fe ff ff       	callq  400e00 <__printf_chk@plt>
  400fca:	bf 60 30 40 00       	mov    $0x403060,%edi
  400fcf:	e8 fc fc ff ff       	callq  400cd0 <puts@plt>
  400fd4:	bf d8 31 40 00       	mov    $0x4031d8,%edi
  400fd9:	e8 f2 fc ff ff       	callq  400cd0 <puts@plt>
  400fde:	bf 88 30 40 00       	mov    $0x403088,%edi
  400fe3:	e8 e8 fc ff ff       	callq  400cd0 <puts@plt>
  400fe8:	bf f2 31 40 00       	mov    $0x4031f2,%edi
  400fed:	e8 de fc ff ff       	callq  400cd0 <puts@plt>
  400ff2:	eb 32                	jmp    401026 <usage+0x80>
  400ff4:	be 0e 32 40 00       	mov    $0x40320e,%esi
  400ff9:	bf 01 00 00 00       	mov    $0x1,%edi
  400ffe:	b8 00 00 00 00       	mov    $0x0,%eax
  401003:	e8 f8 fd ff ff       	callq  400e00 <__printf_chk@plt>
  401008:	bf b0 30 40 00       	mov    $0x4030b0,%edi
  40100d:	e8 be fc ff ff       	callq  400cd0 <puts@plt>
  401012:	bf d8 30 40 00       	mov    $0x4030d8,%edi
  401017:	e8 b4 fc ff ff       	callq  400cd0 <puts@plt>
  40101c:	bf 2c 32 40 00       	mov    $0x40322c,%edi
  401021:	e8 aa fc ff ff       	callq  400cd0 <puts@plt>
  401026:	bf 00 00 00 00       	mov    $0x0,%edi
  40102b:	e8 20 fe ff ff       	callq  400e50 <exit@plt>

0000000000401030 <initialize_target>:
  401030:	55                   	push   %rbp
  401031:	53                   	push   %rbx
  401032:	48 81 ec 18 21 00 00 	sub    $0x2118,%rsp
  401039:	89 f5                	mov    %esi,%ebp
  40103b:	64 48 8b 04 25 28 00 	mov    %fs:0x28,%rax
  401042:	00 00 
  401044:	48 89 84 24 08 21 00 	mov    %rax,0x2108(%rsp)
  40104b:	00 
  40104c:	31 c0                	xor    %eax,%eax
  40104e:	89 3d c4 44 20 00    	mov    %edi,0x2044c4(%rip)        # 605518 <check_level>
  401054:	8b 3d 0e 41 20 00    	mov    0x20410e(%rip),%edi        # 605168 <target_id>
  40105a:	e8 1f 1f 00 00       	callq  402f7e <gencookie>
  40105f:	89 05 bf 44 20 00    	mov    %eax,0x2044bf(%rip)        # 605524 <cookie>
  401065:	89 c7                	mov    %eax,%edi
  401067:	e8 12 1f 00 00       	callq  402f7e <gencookie>
  40106c:	89 05 ae 44 20 00    	mov    %eax,0x2044ae(%rip)        # 605520 <authkey>
  401072:	8b 05 f0 40 20 00    	mov    0x2040f0(%rip),%eax        # 605168 <target_id>
  401078:	8d 78 01             	lea    0x1(%rax),%edi
  40107b:	e8 20 fc ff ff       	callq  400ca0 <srandom@plt>
  401080:	e8 3b fd ff ff       	callq  400dc0 <random@plt>
  401085:	89 c7                	mov    %eax,%edi
  401087:	e8 03 03 00 00       	callq  40138f <scramble>
  40108c:	89 c3                	mov    %eax,%ebx
  40108e:	85 ed                	test   %ebp,%ebp
  401090:	74 18                	je     4010aa <initialize_target+0x7a>
  401092:	bf 00 00 00 00       	mov    $0x0,%edi
  401097:	e8 14 fd ff ff       	callq  400db0 <time@plt>
  40109c:	89 c7                	mov    %eax,%edi
  40109e:	e8 fd fb ff ff       	callq  400ca0 <srandom@plt>
  4010a3:	e8 18 fd ff ff       	callq  400dc0 <random@plt>
  4010a8:	eb 05                	jmp    4010af <initialize_target+0x7f>
  4010aa:	b8 00 00 00 00       	mov    $0x0,%eax
  4010af:	01 c3                	add    %eax,%ebx
  4010b1:	0f b7 db             	movzwl %bx,%ebx
  4010b4:	8d 04 dd 00 01 00 00 	lea    0x100(,%rbx,8),%eax
  4010bb:	89 c0                	mov    %eax,%eax
  4010bd:	48 89 05 dc 43 20 00 	mov    %rax,0x2043dc(%rip)        # 6054a0 <buf_offset>
  4010c4:	c6 05 7d 50 20 00 72 	movb   $0x72,0x20507d(%rip)        # 606148 <target_prefix>
  4010cb:	83 3d d6 43 20 00 00 	cmpl   $0x0,0x2043d6(%rip)        # 6054a8 <notify>
  4010d2:	0f 84 bb 00 00 00    	je     401193 <initialize_target+0x163>
  4010d8:	83 3d 49 44 20 00 00 	cmpl   $0x0,0x204449(%rip)        # 605528 <is_checker>
  4010df:	0f 85 ae 00 00 00    	jne    401193 <initialize_target+0x163>
  4010e5:	be 00 01 00 00       	mov    $0x100,%esi
  4010ea:	48 89 e7             	mov    %rsp,%rdi
  4010ed:	e8 4e fd ff ff       	callq  400e40 <gethostname@plt>
  4010f2:	85 c0                	test   %eax,%eax
  4010f4:	74 25                	je     40111b <initialize_target+0xeb>
  4010f6:	bf 08 31 40 00       	mov    $0x403108,%edi
  4010fb:	e8 d0 fb ff ff       	callq  400cd0 <puts@plt>
  401100:	bf 08 00 00 00       	mov    $0x8,%edi
  401105:	e8 46 fd ff ff       	callq  400e50 <exit@plt>
  40110a:	48 89 e6             	mov    %rsp,%rsi
  40110d:	e8 6e fb ff ff       	callq  400c80 <strcasecmp@plt>
  401112:	85 c0                	test   %eax,%eax
  401114:	74 21                	je     401137 <initialize_target+0x107>
  401116:	83 c3 01             	add    $0x1,%ebx
  401119:	eb 05                	jmp    401120 <initialize_target+0xf0>
  40111b:	bb 00 00 00 00       	mov    $0x0,%ebx
  401120:	48 63 c3             	movslq %ebx,%rax
  401123:	48 8b 3c c5 80 51 60 	mov    0x605180(,%rax,8),%rdi
  40112a:	00 
  40112b:	48 85 ff             	test   %rdi,%rdi
  40112e:	75 da                	jne    40110a <initialize_target+0xda>
  401130:	b8 00 00 00 00       	mov    $0x0,%eax
  401135:	eb 05                	jmp    40113c <initialize_target+0x10c>
  401137:	b8 01 00 00 00       	mov    $0x1,%eax
  40113c:	85 c0                	test   %eax,%eax
  40113e:	75 1c                	jne    40115c <initialize_target+0x12c>
  401140:	48 89 e2             	mov    %rsp,%rdx
  401143:	be 40 31 40 00       	mov    $0x403140,%esi
  401148:	bf 01 00 00 00       	mov    $0x1,%edi
  40114d:	e8 ae fc ff ff       	callq  400e00 <__printf_chk@plt>
  401152:	bf 08 00 00 00       	mov    $0x8,%edi
  401157:	e8 f4 fc ff ff       	callq  400e50 <exit@plt>
  40115c:	48 8d bc 24 00 01 00 	lea    0x100(%rsp),%rdi
  401163:	00 
  401164:	e8 7f 1b 00 00       	callq  402ce8 <init_driver>
  401169:	85 c0                	test   %eax,%eax
  40116b:	79 26                	jns    401193 <initialize_target+0x163>
  40116d:	48 8d 94 24 00 01 00 	lea    0x100(%rsp),%rdx
  401174:	00 
  401175:	be 80 31 40 00       	mov    $0x403180,%esi
  40117a:	bf 01 00 00 00       	mov    $0x1,%edi
  40117f:	b8 00 00 00 00       	mov    $0x0,%eax
  401184:	e8 77 fc ff ff       	callq  400e00 <__printf_chk@plt>
  401189:	bf 08 00 00 00       	mov    $0x8,%edi
  40118e:	e8 bd fc ff ff       	callq  400e50 <exit@plt>
  401193:	48 8b 84 24 08 21 00 	mov    0x2108(%rsp),%rax
  40119a:	00 
  40119b:	64 48 33 04 25 28 00 	xor    %fs:0x28,%rax
  4011a2:	00 00 
  4011a4:	74 05                	je     4011ab <initialize_target+0x17b>
  4011a6:	e8 45 fb ff ff       	callq  400cf0 <__stack_chk_fail@plt>
  4011ab:	48 81 c4 18 21 00 00 	add    $0x2118,%rsp
  4011b2:	5b                   	pop    %rbx
  4011b3:	5d                   	pop    %rbp
  4011b4:	c3                   	retq   

00000000004011b5 <main>:
  4011b5:	41 56                	push   %r14
  4011b7:	41 55                	push   %r13
  4011b9:	41 54                	push   %r12
  4011bb:	55                   	push   %rbp
  4011bc:	53                   	push   %rbx
  4011bd:	41 89 fc             	mov    %edi,%r12d
  4011c0:	48 89 f3             	mov    %rsi,%rbx
  4011c3:	be 23 20 40 00       	mov    $0x402023,%esi
  4011c8:	bf 0b 00 00 00       	mov    $0xb,%edi
  4011cd:	e8 8e fb ff ff       	callq  400d60 <signal@plt>
  4011d2:	be d5 1f 40 00       	mov    $0x401fd5,%esi
  4011d7:	bf 07 00 00 00       	mov    $0x7,%edi
  4011dc:	e8 7f fb ff ff       	callq  400d60 <signal@plt>
  4011e1:	be 71 20 40 00       	mov    $0x402071,%esi
  4011e6:	bf 04 00 00 00       	mov    $0x4,%edi
  4011eb:	e8 70 fb ff ff       	callq  400d60 <signal@plt>
  4011f0:	83 3d 31 43 20 00 00 	cmpl   $0x0,0x204331(%rip)        # 605528 <is_checker>
  4011f7:	74 20                	je     401219 <main+0x64>
  4011f9:	be bf 20 40 00       	mov    $0x4020bf,%esi
  4011fe:	bf 0e 00 00 00       	mov    $0xe,%edi
  401203:	e8 58 fb ff ff       	callq  400d60 <signal@plt>
  401208:	bf 05 00 00 00       	mov    $0x5,%edi
  40120d:	e8 0e fb ff ff       	callq  400d20 <alarm@plt>
  401212:	bd 4a 32 40 00       	mov    $0x40324a,%ebp
  401217:	eb 05                	jmp    40121e <main+0x69>
  401219:	bd 45 32 40 00       	mov    $0x403245,%ebp
  40121e:	48 8b 05 9b 42 20 00 	mov    0x20429b(%rip),%rax        # 6054c0 <stdin@@GLIBC_2.2.5>
  401225:	48 89 05 e4 42 20 00 	mov    %rax,0x2042e4(%rip)        # 605510 <infile>
  40122c:	41 bd 00 00 00 00    	mov    $0x0,%r13d
  401232:	41 be 00 00 00 00    	mov    $0x0,%r14d
  401238:	e9 c6 00 00 00       	jmpq   401303 <main+0x14e>
  40123d:	83 e8 61             	sub    $0x61,%eax
  401240:	3c 10                	cmp    $0x10,%al
  401242:	0f 87 9c 00 00 00    	ja     4012e4 <main+0x12f>
  401248:	0f b6 c0             	movzbl %al,%eax
  40124b:	ff 24 c5 90 32 40 00 	jmpq   *0x403290(,%rax,8)
  401252:	48 8b 3b             	mov    (%rbx),%rdi
  401255:	e8 4c fd ff ff       	callq  400fa6 <usage>
  40125a:	be 45 34 40 00       	mov    $0x403445,%esi
  40125f:	48 8b 3d 62 42 20 00 	mov    0x204262(%rip),%rdi        # 6054c8 <optarg@@GLIBC_2.2.5>
  401266:	e8 a5 fb ff ff       	callq  400e10 <fopen@plt>
  40126b:	48 89 05 9e 42 20 00 	mov    %rax,0x20429e(%rip)        # 605510 <infile>
  401272:	48 85 c0             	test   %rax,%rax
  401275:	0f 85 88 00 00 00    	jne    401303 <main+0x14e>
  40127b:	48 8b 0d 46 42 20 00 	mov    0x204246(%rip),%rcx        # 6054c8 <optarg@@GLIBC_2.2.5>
  401282:	ba 52 32 40 00       	mov    $0x403252,%edx
  401287:	be 01 00 00 00       	mov    $0x1,%esi
  40128c:	48 8b 3d 4d 42 20 00 	mov    0x20424d(%rip),%rdi        # 6054e0 <stderr@@GLIBC_2.2.5>
  401293:	e8 d8 fb ff ff       	callq  400e70 <__fprintf_chk@plt>
  401298:	b8 01 00 00 00       	mov    $0x1,%eax
  40129d:	e9 e4 00 00 00       	jmpq   401386 <main+0x1d1>
  4012a2:	ba 10 00 00 00       	mov    $0x10,%edx
  4012a7:	be 00 00 00 00       	mov    $0x0,%esi
  4012ac:	48 8b 3d 15 42 20 00 	mov    0x204215(%rip),%rdi        # 6054c8 <optarg@@GLIBC_2.2.5>
  4012b3:	e8 78 fb ff ff       	callq  400e30 <strtoul@plt>
  4012b8:	41 89 c6             	mov    %eax,%r14d
  4012bb:	eb 46                	jmp    401303 <main+0x14e>
  4012bd:	ba 0a 00 00 00       	mov    $0xa,%edx
  4012c2:	be 00 00 00 00       	mov    $0x0,%esi
  4012c7:	48 8b 3d fa 41 20 00 	mov    0x2041fa(%rip),%rdi        # 6054c8 <optarg@@GLIBC_2.2.5>
  4012ce:	e8 bd fa ff ff       	callq  400d90 <strtol@plt>
  4012d3:	41 89 c5             	mov    %eax,%r13d
  4012d6:	eb 2b                	jmp    401303 <main+0x14e>
  4012d8:	c7 05 c6 41 20 00 00 	movl   $0x0,0x2041c6(%rip)        # 6054a8 <notify>
  4012df:	00 00 00 
  4012e2:	eb 1f                	jmp    401303 <main+0x14e>
  4012e4:	0f be d2             	movsbl %dl,%edx
  4012e7:	be 6f 32 40 00       	mov    $0x40326f,%esi
  4012ec:	bf 01 00 00 00       	mov    $0x1,%edi
  4012f1:	b8 00 00 00 00       	mov    $0x0,%eax
  4012f6:	e8 05 fb ff ff       	callq  400e00 <__printf_chk@plt>
  4012fb:	48 8b 3b             	mov    (%rbx),%rdi
  4012fe:	e8 a3 fc ff ff       	callq  400fa6 <usage>
  401303:	48 89 ea             	mov    %rbp,%rdx
  401306:	48 89 de             	mov    %rbx,%rsi
  401309:	44 89 e7             	mov    %r12d,%edi
  40130c:	e8 0f fb ff ff       	callq  400e20 <getopt@plt>
  401311:	89 c2                	mov    %eax,%edx
  401313:	3c ff                	cmp    $0xff,%al
  401315:	0f 85 22 ff ff ff    	jne    40123d <main+0x88>
  40131b:	be 01 00 00 00       	mov    $0x1,%esi
  401320:	44 89 ef             	mov    %r13d,%edi
  401323:	e8 08 fd ff ff       	callq  401030 <initialize_target>
  401328:	83 3d f9 41 20 00 00 	cmpl   $0x0,0x2041f9(%rip)        # 605528 <is_checker>
  40132f:	74 2a                	je     40135b <main+0x1a6>
  401331:	44 3b 35 e8 41 20 00 	cmp    0x2041e8(%rip),%r14d        # 605520 <authkey>
  401338:	74 21                	je     40135b <main+0x1a6>
  40133a:	44 89 f2             	mov    %r14d,%edx
  40133d:	be a8 31 40 00       	mov    $0x4031a8,%esi
  401342:	bf 01 00 00 00       	mov    $0x1,%edi
  401347:	b8 00 00 00 00       	mov    $0x0,%eax
  40134c:	e8 af fa ff ff       	callq  400e00 <__printf_chk@plt>
  401351:	b8 00 00 00 00       	mov    $0x0,%eax
  401356:	e8 fc 08 00 00       	callq  401c57 <check_fail>
  40135b:	8b 15 c3 41 20 00    	mov    0x2041c3(%rip),%edx        # 605524 <cookie>
  401361:	be 82 32 40 00       	mov    $0x403282,%esi
  401366:	bf 01 00 00 00       	mov    $0x1,%edi
  40136b:	b8 00 00 00 00       	mov    $0x0,%eax
  401370:	e8 8b fa ff ff       	callq  400e00 <__printf_chk@plt>
  401375:	48 8b 3d 24 41 20 00 	mov    0x204124(%rip),%rdi        # 6054a0 <buf_offset>
  40137c:	e8 91 0d 00 00       	callq  402112 <launch>
  401381:	b8 00 00 00 00       	mov    $0x0,%eax
  401386:	5b                   	pop    %rbx
  401387:	5d                   	pop    %rbp
  401388:	41 5c                	pop    %r12
  40138a:	41 5d                	pop    %r13
  40138c:	41 5e                	pop    %r14
  40138e:	c3                   	retq   

000000000040138f <scramble>:
  40138f:	48 83 ec 38          	sub    $0x38,%rsp
  401393:	64 48 8b 04 25 28 00 	mov    %fs:0x28,%rax
  40139a:	00 00 
  40139c:	48 89 44 24 28       	mov    %rax,0x28(%rsp)
  4013a1:	31 c0                	xor    %eax,%eax
  4013a3:	eb 10                	jmp    4013b5 <scramble+0x26>
  4013a5:	69 d0 84 b7 00 00    	imul   $0xb784,%eax,%edx
  4013ab:	01 fa                	add    %edi,%edx
  4013ad:	89 c1                	mov    %eax,%ecx
  4013af:	89 14 8c             	mov    %edx,(%rsp,%rcx,4)
  4013b2:	83 c0 01             	add    $0x1,%eax
  4013b5:	83 f8 09             	cmp    $0x9,%eax
  4013b8:	76 eb                	jbe    4013a5 <scramble+0x16>
  4013ba:	8b 44 24 20          	mov    0x20(%rsp),%eax
  4013be:	69 c0 fc ee 00 00    	imul   $0xeefc,%eax,%eax
  4013c4:	89 44 24 20          	mov    %eax,0x20(%rsp)
  4013c8:	8b 44 24 04          	mov    0x4(%rsp),%eax
  4013cc:	69 c0 44 af 00 00    	imul   $0xaf44,%eax,%eax
  4013d2:	89 44 24 04          	mov    %eax,0x4(%rsp)
  4013d6:	8b 44 24 10          	mov    0x10(%rsp),%eax
  4013da:	69 c0 34 ce 00 00    	imul   $0xce34,%eax,%eax
  4013e0:	89 44 24 10          	mov    %eax,0x10(%rsp)
  4013e4:	8b 44 24 18          	mov    0x18(%rsp),%eax
  4013e8:	69 c0 e4 b9 00 00    	imul   $0xb9e4,%eax,%eax
  4013ee:	89 44 24 18          	mov    %eax,0x18(%rsp)
  4013f2:	8b 44 24 24          	mov    0x24(%rsp),%eax
  4013f6:	69 c0 75 84 00 00    	imul   $0x8475,%eax,%eax
  4013fc:	89 44 24 24          	mov    %eax,0x24(%rsp)
  401400:	8b 44 24 14          	mov    0x14(%rsp),%eax
  401404:	69 c0 c2 c7 00 00    	imul   $0xc7c2,%eax,%eax
  40140a:	89 44 24 14          	mov    %eax,0x14(%rsp)
  40140e:	8b 44 24 14          	mov    0x14(%rsp),%eax
  401412:	69 c0 3c 60 00 00    	imul   $0x603c,%eax,%eax
  401418:	89 44 24 14          	mov    %eax,0x14(%rsp)
  40141c:	8b 44 24 20          	mov    0x20(%rsp),%eax
  401420:	69 c0 44 a2 00 00    	imul   $0xa244,%eax,%eax
  401426:	89 44 24 20          	mov    %eax,0x20(%rsp)
  40142a:	8b 04 24             	mov    (%rsp),%eax
  40142d:	69 c0 a4 9e 00 00    	imul   $0x9ea4,%eax,%eax
  401433:	89 04 24             	mov    %eax,(%rsp)
  401436:	8b 44 24 18          	mov    0x18(%rsp),%eax
  40143a:	69 c0 21 0d 00 00    	imul   $0xd21,%eax,%eax
  401440:	89 44 24 18          	mov    %eax,0x18(%rsp)
  401444:	8b 44 24 20          	mov    0x20(%rsp),%eax
  401448:	69 c0 59 69 00 00    	imul   $0x6959,%eax,%eax
  40144e:	89 44 24 20          	mov    %eax,0x20(%rsp)
  401452:	8b 04 24             	mov    (%rsp),%eax
  401455:	69 c0 d8 7a 00 00    	imul   $0x7ad8,%eax,%eax
  40145b:	89 04 24             	mov    %eax,(%rsp)
  40145e:	8b 44 24 04          	mov    0x4(%rsp),%eax
  401462:	69 c0 2f fc 00 00    	imul   $0xfc2f,%eax,%eax
  401468:	89 44 24 04          	mov    %eax,0x4(%rsp)
  40146c:	8b 44 24 0c          	mov    0xc(%rsp),%eax
  401470:	69 c0 19 dd 00 00    	imul   $0xdd19,%eax,%eax
  401476:	89 44 24 0c          	mov    %eax,0xc(%rsp)
  40147a:	8b 44 24 24          	mov    0x24(%rsp),%eax
  40147e:	69 c0 b0 35 00 00    	imul   $0x35b0,%eax,%eax
  401484:	89 44 24 24          	mov    %eax,0x24(%rsp)
  401488:	8b 04 24             	mov    (%rsp),%eax
  40148b:	69 c0 92 32 00 00    	imul   $0x3292,%eax,%eax
  401491:	89 04 24             	mov    %eax,(%rsp)
  401494:	8b 44 24 10          	mov    0x10(%rsp),%eax
  401498:	69 c0 cb 44 00 00    	imul   $0x44cb,%eax,%eax
  40149e:	89 44 24 10          	mov    %eax,0x10(%rsp)
  4014a2:	8b 44 24 14          	mov    0x14(%rsp),%eax
  4014a6:	69 c0 39 3c 00 00    	imul   $0x3c39,%eax,%eax
  4014ac:	89 44 24 14          	mov    %eax,0x14(%rsp)
  4014b0:	8b 44 24 24          	mov    0x24(%rsp),%eax
  4014b4:	69 c0 80 68 00 00    	imul   $0x6880,%eax,%eax
  4014ba:	89 44 24 24          	mov    %eax,0x24(%rsp)
  4014be:	8b 44 24 24          	mov    0x24(%rsp),%eax
  4014c2:	69 c0 21 ad 00 00    	imul   $0xad21,%eax,%eax
  4014c8:	89 44 24 24          	mov    %eax,0x24(%rsp)
  4014cc:	8b 44 24 18          	mov    0x18(%rsp),%eax
  4014d0:	69 c0 b7 7f 00 00    	imul   $0x7fb7,%eax,%eax
  4014d6:	89 44 24 18          	mov    %eax,0x18(%rsp)
  4014da:	8b 44 24 24          	mov    0x24(%rsp),%eax
  4014de:	69 c0 78 34 00 00    	imul   $0x3478,%eax,%eax
  4014e4:	89 44 24 24          	mov    %eax,0x24(%rsp)
  4014e8:	8b 44 24 1c          	mov    0x1c(%rsp),%eax
  4014ec:	69 c0 63 12 00 00    	imul   $0x1263,%eax,%eax
  4014f2:	89 44 24 1c          	mov    %eax,0x1c(%rsp)
  4014f6:	8b 44 24 04          	mov    0x4(%rsp),%eax
  4014fa:	69 c0 59 ca 00 00    	imul   $0xca59,%eax,%eax
  401500:	89 44 24 04          	mov    %eax,0x4(%rsp)
  401504:	8b 44 24 14          	mov    0x14(%rsp),%eax
  401508:	69 c0 6f 8a 00 00    	imul   $0x8a6f,%eax,%eax
  40150e:	89 44 24 14          	mov    %eax,0x14(%rsp)
  401512:	8b 44 24 14          	mov    0x14(%rsp),%eax
  401516:	69 c0 bc e8 00 00    	imul   $0xe8bc,%eax,%eax
  40151c:	89 44 24 14          	mov    %eax,0x14(%rsp)
  401520:	8b 44 24 10          	mov    0x10(%rsp),%eax
  401524:	69 c0 51 34 00 00    	imul   $0x3451,%eax,%eax
  40152a:	89 44 24 10          	mov    %eax,0x10(%rsp)
  40152e:	8b 44 24 24          	mov    0x24(%rsp),%eax
  401532:	69 c0 09 5f 00 00    	imul   $0x5f09,%eax,%eax
  401538:	89 44 24 24          	mov    %eax,0x24(%rsp)
  40153c:	8b 44 24 18          	mov    0x18(%rsp),%eax
  401540:	69 c0 e0 e4 00 00    	imul   $0xe4e0,%eax,%eax
  401546:	89 44 24 18          	mov    %eax,0x18(%rsp)
  40154a:	8b 44 24 10          	mov    0x10(%rsp),%eax
  40154e:	69 c0 8e ab 00 00    	imul   $0xab8e,%eax,%eax
  401554:	89 44 24 10          	mov    %eax,0x10(%rsp)
  401558:	8b 44 24 20          	mov    0x20(%rsp),%eax
  40155c:	69 c0 a4 c7 00 00    	imul   $0xc7a4,%eax,%eax
  401562:	89 44 24 20          	mov    %eax,0x20(%rsp)
  401566:	8b 44 24 14          	mov    0x14(%rsp),%eax
  40156a:	69 c0 3c 3f 00 00    	imul   $0x3f3c,%eax,%eax
  401570:	89 44 24 14          	mov    %eax,0x14(%rsp)
  401574:	8b 44 24 04          	mov    0x4(%rsp),%eax
  401578:	69 c0 f6 bf 00 00    	imul   $0xbff6,%eax,%eax
  40157e:	89 44 24 04          	mov    %eax,0x4(%rsp)
  401582:	8b 44 24 10          	mov    0x10(%rsp),%eax
  401586:	69 c0 6f 1f 00 00    	imul   $0x1f6f,%eax,%eax
  40158c:	89 44 24 10          	mov    %eax,0x10(%rsp)
  401590:	8b 44 24 10          	mov    0x10(%rsp),%eax
  401594:	69 c0 93 71 00 00    	imul   $0x7193,%eax,%eax
  40159a:	89 44 24 10          	mov    %eax,0x10(%rsp)
  40159e:	8b 44 24 08          	mov    0x8(%rsp),%eax
  4015a2:	69 c0 6b 15 00 00    	imul   $0x156b,%eax,%eax
  4015a8:	89 44 24 08          	mov    %eax,0x8(%rsp)
  4015ac:	8b 44 24 08          	mov    0x8(%rsp),%eax
  4015b0:	69 c0 74 41 00 00    	imul   $0x4174,%eax,%eax
  4015b6:	89 44 24 08          	mov    %eax,0x8(%rsp)
  4015ba:	8b 44 24 04          	mov    0x4(%rsp),%eax
  4015be:	69 c0 3d d1 00 00    	imul   $0xd13d,%eax,%eax
  4015c4:	89 44 24 04          	mov    %eax,0x4(%rsp)
  4015c8:	8b 04 24             	mov    (%rsp),%eax
  4015cb:	69 c0 a1 20 00 00    	imul   $0x20a1,%eax,%eax
  4015d1:	89 04 24             	mov    %eax,(%rsp)
  4015d4:	8b 44 24 20          	mov    0x20(%rsp),%eax
  4015d8:	69 c0 df 04 00 00    	imul   $0x4df,%eax,%eax
  4015de:	89 44 24 20          	mov    %eax,0x20(%rsp)
  4015e2:	8b 44 24 14          	mov    0x14(%rsp),%eax
  4015e6:	69 c0 11 73 00 00    	imul   $0x7311,%eax,%eax
  4015ec:	89 44 24 14          	mov    %eax,0x14(%rsp)
  4015f0:	8b 44 24 04          	mov    0x4(%rsp),%eax
  4015f4:	69 c0 d9 9e 00 00    	imul   $0x9ed9,%eax,%eax
  4015fa:	89 44 24 04          	mov    %eax,0x4(%rsp)
  4015fe:	8b 44 24 08          	mov    0x8(%rsp),%eax
  401602:	69 c0 2f 51 00 00    	imul   $0x512f,%eax,%eax
  401608:	89 44 24 08          	mov    %eax,0x8(%rsp)
  40160c:	8b 44 24 24          	mov    0x24(%rsp),%eax
  401610:	69 c0 e4 d7 00 00    	imul   $0xd7e4,%eax,%eax
  401616:	89 44 24 24          	mov    %eax,0x24(%rsp)
  40161a:	8b 44 24 08          	mov    0x8(%rsp),%eax
  40161e:	69 c0 05 3a 00 00    	imul   $0x3a05,%eax,%eax
  401624:	89 44 24 08          	mov    %eax,0x8(%rsp)
  401628:	8b 44 24 14          	mov    0x14(%rsp),%eax
  40162c:	69 c0 9f 50 00 00    	imul   $0x509f,%eax,%eax
  401632:	89 44 24 14          	mov    %eax,0x14(%rsp)
  401636:	8b 44 24 04          	mov    0x4(%rsp),%eax
  40163a:	69 c0 93 61 00 00    	imul   $0x6193,%eax,%eax
  401640:	89 44 24 04          	mov    %eax,0x4(%rsp)
  401644:	8b 44 24 24          	mov    0x24(%rsp),%eax
  401648:	69 c0 18 0e 00 00    	imul   $0xe18,%eax,%eax
  40164e:	89 44 24 24          	mov    %eax,0x24(%rsp)
  401652:	8b 44 24 0c          	mov    0xc(%rsp),%eax
  401656:	69 c0 51 0b 00 00    	imul   $0xb51,%eax,%eax
  40165c:	89 44 24 0c          	mov    %eax,0xc(%rsp)
  401660:	8b 44 24 18          	mov    0x18(%rsp),%eax
  401664:	69 c0 00 4a 00 00    	imul   $0x4a00,%eax,%eax
  40166a:	89 44 24 18          	mov    %eax,0x18(%rsp)
  40166e:	8b 44 24 04          	mov    0x4(%rsp),%eax
  401672:	69 c0 18 fa 00 00    	imul   $0xfa18,%eax,%eax
  401678:	89 44 24 04          	mov    %eax,0x4(%rsp)
  40167c:	8b 44 24 20          	mov    0x20(%rsp),%eax
  401680:	69 c0 2e 6e 00 00    	imul   $0x6e2e,%eax,%eax
  401686:	89 44 24 20          	mov    %eax,0x20(%rsp)
  40168a:	8b 44 24 04          	mov    0x4(%rsp),%eax
  40168e:	69 c0 4f a9 00 00    	imul   $0xa94f,%eax,%eax
  401694:	89 44 24 04          	mov    %eax,0x4(%rsp)
  401698:	8b 44 24 10          	mov    0x10(%rsp),%eax
  40169c:	69 c0 64 8f 00 00    	imul   $0x8f64,%eax,%eax
  4016a2:	89 44 24 10          	mov    %eax,0x10(%rsp)
  4016a6:	8b 44 24 24          	mov    0x24(%rsp),%eax
  4016aa:	69 c0 01 db 00 00    	imul   $0xdb01,%eax,%eax
  4016b0:	89 44 24 24          	mov    %eax,0x24(%rsp)
  4016b4:	8b 44 24 24          	mov    0x24(%rsp),%eax
  4016b8:	69 c0 01 75 00 00    	imul   $0x7501,%eax,%eax
  4016be:	89 44 24 24          	mov    %eax,0x24(%rsp)
  4016c2:	8b 44 24 20          	mov    0x20(%rsp),%eax
  4016c6:	69 c0 de 81 00 00    	imul   $0x81de,%eax,%eax
  4016cc:	89 44 24 20          	mov    %eax,0x20(%rsp)
  4016d0:	8b 44 24 1c          	mov    0x1c(%rsp),%eax
  4016d4:	69 c0 76 f5 00 00    	imul   $0xf576,%eax,%eax
  4016da:	89 44 24 1c          	mov    %eax,0x1c(%rsp)
  4016de:	8b 04 24             	mov    (%rsp),%eax
  4016e1:	69 c0 bd 11 00 00    	imul   $0x11bd,%eax,%eax
  4016e7:	89 04 24             	mov    %eax,(%rsp)
  4016ea:	8b 44 24 08          	mov    0x8(%rsp),%eax
  4016ee:	69 c0 1d 09 00 00    	imul   $0x91d,%eax,%eax
  4016f4:	89 44 24 08          	mov    %eax,0x8(%rsp)
  4016f8:	8b 44 24 10          	mov    0x10(%rsp),%eax
  4016fc:	69 c0 cc 50 00 00    	imul   $0x50cc,%eax,%eax
  401702:	89 44 24 10          	mov    %eax,0x10(%rsp)
  401706:	8b 44 24 24          	mov    0x24(%rsp),%eax
  40170a:	69 c0 6b 4d 00 00    	imul   $0x4d6b,%eax,%eax
  401710:	89 44 24 24          	mov    %eax,0x24(%rsp)
  401714:	8b 44 24 04          	mov    0x4(%rsp),%eax
  401718:	69 c0 98 e9 00 00    	imul   $0xe998,%eax,%eax
  40171e:	89 44 24 04          	mov    %eax,0x4(%rsp)
  401722:	8b 44 24 0c          	mov    0xc(%rsp),%eax
  401726:	69 c0 e9 d3 00 00    	imul   $0xd3e9,%eax,%eax
  40172c:	89 44 24 0c          	mov    %eax,0xc(%rsp)
  401730:	8b 44 24 14          	mov    0x14(%rsp),%eax
  401734:	69 c0 0b 89 00 00    	imul   $0x890b,%eax,%eax
  40173a:	89 44 24 14          	mov    %eax,0x14(%rsp)
  40173e:	8b 44 24 14          	mov    0x14(%rsp),%eax
  401742:	69 c0 cd 71 00 00    	imul   $0x71cd,%eax,%eax
  401748:	89 44 24 14          	mov    %eax,0x14(%rsp)
  40174c:	8b 44 24 24          	mov    0x24(%rsp),%eax
  401750:	69 c0 54 7d 00 00    	imul   $0x7d54,%eax,%eax
  401756:	89 44 24 24          	mov    %eax,0x24(%rsp)
  40175a:	8b 44 24 08          	mov    0x8(%rsp),%eax
  40175e:	69 c0 af be 00 00    	imul   $0xbeaf,%eax,%eax
  401764:	89 44 24 08          	mov    %eax,0x8(%rsp)
  401768:	8b 44 24 24          	mov    0x24(%rsp),%eax
  40176c:	69 c0 66 1f 00 00    	imul   $0x1f66,%eax,%eax
  401772:	89 44 24 24          	mov    %eax,0x24(%rsp)
  401776:	8b 44 24 0c          	mov    0xc(%rsp),%eax
  40177a:	69 c0 94 f0 00 00    	imul   $0xf094,%eax,%eax
  401780:	89 44 24 0c          	mov    %eax,0xc(%rsp)
  401784:	8b 44 24 04          	mov    0x4(%rsp),%eax
  401788:	69 c0 56 e2 00 00    	imul   $0xe256,%eax,%eax
  40178e:	89 44 24 04          	mov    %eax,0x4(%rsp)
  401792:	8b 44 24 10          	mov    0x10(%rsp),%eax
  401796:	69 c0 7a 48 00 00    	imul   $0x487a,%eax,%eax
  40179c:	89 44 24 10          	mov    %eax,0x10(%rsp)
  4017a0:	8b 44 24 10          	mov    0x10(%rsp),%eax
  4017a4:	69 c0 70 79 00 00    	imul   $0x7970,%eax,%eax
  4017aa:	89 44 24 10          	mov    %eax,0x10(%rsp)
  4017ae:	8b 44 24 1c          	mov    0x1c(%rsp),%eax
  4017b2:	69 c0 42 37 00 00    	imul   $0x3742,%eax,%eax
  4017b8:	89 44 24 1c          	mov    %eax,0x1c(%rsp)
  4017bc:	8b 44 24 0c          	mov    0xc(%rsp),%eax
  4017c0:	69 c0 4a 0b 00 00    	imul   $0xb4a,%eax,%eax
  4017c6:	89 44 24 0c          	mov    %eax,0xc(%rsp)
  4017ca:	8b 44 24 0c          	mov    0xc(%rsp),%eax
  4017ce:	69 c0 ef d6 00 00    	imul   $0xd6ef,%eax,%eax
  4017d4:	89 44 24 0c          	mov    %eax,0xc(%rsp)
  4017d8:	8b 04 24             	mov    (%rsp),%eax
  4017db:	69 c0 1b 9a 00 00    	imul   $0x9a1b,%eax,%eax
  4017e1:	89 04 24             	mov    %eax,(%rsp)
  4017e4:	8b 44 24 24          	mov    0x24(%rsp),%eax
  4017e8:	69 c0 76 0e 00 00    	imul   $0xe76,%eax,%eax
  4017ee:	89 44 24 24          	mov    %eax,0x24(%rsp)
  4017f2:	8b 44 24 04          	mov    0x4(%rsp),%eax
  4017f6:	69 c0 dd 7f 00 00    	imul   $0x7fdd,%eax,%eax
  4017fc:	89 44 24 04          	mov    %eax,0x4(%rsp)
  401800:	8b 04 24             	mov    (%rsp),%eax
  401803:	69 c0 9c 78 00 00    	imul   $0x789c,%eax,%eax
  401809:	89 04 24             	mov    %eax,(%rsp)
  40180c:	8b 44 24 14          	mov    0x14(%rsp),%eax
  401810:	8d 14 c0             	lea    (%rax,%rax,8),%edx
  401813:	8d 04 d5 00 00 00 00 	lea    0x0(,%rdx,8),%eax
  40181a:	89 44 24 14          	mov    %eax,0x14(%rsp)
  40181e:	8b 44 24 1c          	mov    0x1c(%rsp),%eax
  401822:	69 c0 0b 8c 00 00    	imul   $0x8c0b,%eax,%eax
  401828:	89 44 24 1c          	mov    %eax,0x1c(%rsp)
  40182c:	8b 44 24 0c          	mov    0xc(%rsp),%eax
  401830:	69 c0 64 ca 00 00    	imul   $0xca64,%eax,%eax
  401836:	89 44 24 0c          	mov    %eax,0xc(%rsp)
  40183a:	8b 44 24 18          	mov    0x18(%rsp),%eax
  40183e:	69 c0 41 a4 00 00    	imul   $0xa441,%eax,%eax
  401844:	89 44 24 18          	mov    %eax,0x18(%rsp)
  401848:	8b 44 24 24          	mov    0x24(%rsp),%eax
  40184c:	69 c0 ce 98 00 00    	imul   $0x98ce,%eax,%eax
  401852:	89 44 24 24          	mov    %eax,0x24(%rsp)
  401856:	8b 44 24 14          	mov    0x14(%rsp),%eax
  40185a:	69 c0 32 e4 00 00    	imul   $0xe432,%eax,%eax
  401860:	89 44 24 14          	mov    %eax,0x14(%rsp)
  401864:	8b 44 24 18          	mov    0x18(%rsp),%eax
  401868:	69 c0 6b fa 00 00    	imul   $0xfa6b,%eax,%eax
  40186e:	89 44 24 18          	mov    %eax,0x18(%rsp)
  401872:	8b 44 24 1c          	mov    0x1c(%rsp),%eax
  401876:	69 c0 59 df 00 00    	imul   $0xdf59,%eax,%eax
  40187c:	89 44 24 1c          	mov    %eax,0x1c(%rsp)
  401880:	8b 44 24 1c          	mov    0x1c(%rsp),%eax
  401884:	69 c0 9d 6a 00 00    	imul   $0x6a9d,%eax,%eax
  40188a:	89 44 24 1c          	mov    %eax,0x1c(%rsp)
  40188e:	8b 44 24 24          	mov    0x24(%rsp),%eax
  401892:	69 c0 08 ff 00 00    	imul   $0xff08,%eax,%eax
  401898:	89 44 24 24          	mov    %eax,0x24(%rsp)
  40189c:	8b 44 24 14          	mov    0x14(%rsp),%eax
  4018a0:	69 c0 fa 56 00 00    	imul   $0x56fa,%eax,%eax
  4018a6:	89 44 24 14          	mov    %eax,0x14(%rsp)
  4018aa:	ba 00 00 00 00       	mov    $0x0,%edx
  4018af:	b8 00 00 00 00       	mov    $0x0,%eax
  4018b4:	eb 0a                	jmp    4018c0 <scramble+0x531>
  4018b6:	89 d1                	mov    %edx,%ecx
  4018b8:	8b 0c 8c             	mov    (%rsp,%rcx,4),%ecx
  4018bb:	01 c8                	add    %ecx,%eax
  4018bd:	83 c2 01             	add    $0x1,%edx
  4018c0:	83 fa 09             	cmp    $0x9,%edx
  4018c3:	76 f1                	jbe    4018b6 <scramble+0x527>
  4018c5:	48 8b 74 24 28       	mov    0x28(%rsp),%rsi
  4018ca:	64 48 33 34 25 28 00 	xor    %fs:0x28,%rsi
  4018d1:	00 00 
  4018d3:	74 05                	je     4018da <scramble+0x54b>
  4018d5:	e8 16 f4 ff ff       	callq  400cf0 <__stack_chk_fail@plt>
  4018da:	48 83 c4 38          	add    $0x38,%rsp
  4018de:	c3                   	retq   

00000000004018df <getbuf>:
  4018df:	48 83 ec 28          	sub    $0x28,%rsp
  4018e3:	48 89 e7             	mov    %rsp,%rdi
  4018e6:	e8 a1 03 00 00       	callq  401c8c <Gets>
  4018eb:	b8 01 00 00 00       	mov    $0x1,%eax
  4018f0:	48 83 c4 28          	add    $0x28,%rsp
  4018f4:	c3                   	retq   

00000000004018f5 <touch1>:
  4018f5:	48 83 ec 08          	sub    $0x8,%rsp
  4018f9:	c7 05 19 3c 20 00 01 	movl   $0x1,0x203c19(%rip)        # 60551c <vlevel>
  401900:	00 00 00 
  401903:	bf 8b 34 40 00       	mov    $0x40348b,%edi
  401908:	e8 c3 f3 ff ff       	callq  400cd0 <puts@plt>
  40190d:	bf 01 00 00 00       	mov    $0x1,%edi
  401912:	e8 ba 05 00 00       	callq  401ed1 <validate>
  401917:	bf 00 00 00 00       	mov    $0x0,%edi
  40191c:	e8 2f f5 ff ff       	callq  400e50 <exit@plt>

0000000000401921 <touch2>:
  401921:	48 83 ec 08          	sub    $0x8,%rsp
  401925:	89 fa                	mov    %edi,%edx
  401927:	c7 05 eb 3b 20 00 02 	movl   $0x2,0x203beb(%rip)        # 60551c <vlevel>
  40192e:	00 00 00 
  401931:	39 3d ed 3b 20 00    	cmp    %edi,0x203bed(%rip)        # 605524 <cookie>
  401937:	75 20                	jne    401959 <touch2+0x38>
  401939:	be b0 34 40 00       	mov    $0x4034b0,%esi
  40193e:	bf 01 00 00 00       	mov    $0x1,%edi
  401943:	b8 00 00 00 00       	mov    $0x0,%eax
  401948:	e8 b3 f4 ff ff       	callq  400e00 <__printf_chk@plt>
  40194d:	bf 02 00 00 00       	mov    $0x2,%edi
  401952:	e8 7a 05 00 00       	callq  401ed1 <validate>
  401957:	eb 1e                	jmp    401977 <touch2+0x56>
  401959:	be d8 34 40 00       	mov    $0x4034d8,%esi
  40195e:	bf 01 00 00 00       	mov    $0x1,%edi
  401963:	b8 00 00 00 00       	mov    $0x0,%eax
  401968:	e8 93 f4 ff ff       	callq  400e00 <__printf_chk@plt>
  40196d:	bf 02 00 00 00       	mov    $0x2,%edi
  401972:	e8 36 06 00 00       	callq  401fad <fail>
  401977:	bf 00 00 00 00       	mov    $0x0,%edi
  40197c:	e8 cf f4 ff ff       	callq  400e50 <exit@plt>

0000000000401981 <hexmatch>:
  401981:	41 54                	push   %r12
  401983:	55                   	push   %rbp
  401984:	53                   	push   %rbx
  401985:	48 83 c4 80          	add    $0xffffffffffffff80,%rsp
  401989:	89 fd                	mov    %edi,%ebp
  40198b:	48 89 f3             	mov    %rsi,%rbx
  40198e:	64 48 8b 04 25 28 00 	mov    %fs:0x28,%rax
  401995:	00 00 
  401997:	48 89 44 24 78       	mov    %rax,0x78(%rsp)
  40199c:	31 c0                	xor    %eax,%eax
  40199e:	e8 1d f4 ff ff       	callq  400dc0 <random@plt>
  4019a3:	48 89 c1             	mov    %rax,%rcx
  4019a6:	48 ba 0b d7 a3 70 3d 	movabs $0xa3d70a3d70a3d70b,%rdx
  4019ad:	0a d7 a3 
  4019b0:	48 f7 ea             	imul   %rdx
  4019b3:	48 01 ca             	add    %rcx,%rdx
  4019b6:	48 c1 fa 06          	sar    $0x6,%rdx
  4019ba:	48 89 c8             	mov    %rcx,%rax
  4019bd:	48 c1 f8 3f          	sar    $0x3f,%rax
  4019c1:	48 29 c2             	sub    %rax,%rdx
  4019c4:	48 8d 04 92          	lea    (%rdx,%rdx,4),%rax
  4019c8:	48 8d 14 80          	lea    (%rax,%rax,4),%rdx
  4019cc:	48 8d 04 95 00 00 00 	lea    0x0(,%rdx,4),%rax
  4019d3:	00 
  4019d4:	48 29 c1             	sub    %rax,%rcx
  4019d7:	4c 8d 24 0c          	lea    (%rsp,%rcx,1),%r12
  4019db:	41 89 e8             	mov    %ebp,%r8d
  4019de:	b9 a8 34 40 00       	mov    $0x4034a8,%ecx
  4019e3:	48 c7 c2 ff ff ff ff 	mov    $0xffffffffffffffff,%rdx
  4019ea:	be 01 00 00 00       	mov    $0x1,%esi
  4019ef:	4c 89 e7             	mov    %r12,%rdi
  4019f2:	b8 00 00 00 00       	mov    $0x0,%eax
  4019f7:	e8 84 f4 ff ff       	callq  400e80 <__sprintf_chk@plt>
  4019fc:	ba 09 00 00 00       	mov    $0x9,%edx
  401a01:	4c 89 e6             	mov    %r12,%rsi
  401a04:	48 89 df             	mov    %rbx,%rdi
  401a07:	e8 a4 f2 ff ff       	callq  400cb0 <strncmp@plt>
  401a0c:	85 c0                	test   %eax,%eax
  401a0e:	0f 94 c0             	sete   %al
  401a11:	48 8b 5c 24 78       	mov    0x78(%rsp),%rbx
  401a16:	64 48 33 1c 25 28 00 	xor    %fs:0x28,%rbx
  401a1d:	00 00 
  401a1f:	74 05                	je     401a26 <hexmatch+0xa5>
  401a21:	e8 ca f2 ff ff       	callq  400cf0 <__stack_chk_fail@plt>
  401a26:	0f b6 c0             	movzbl %al,%eax
  401a29:	48 83 ec 80          	sub    $0xffffffffffffff80,%rsp
  401a2d:	5b                   	pop    %rbx
  401a2e:	5d                   	pop    %rbp
  401a2f:	41 5c                	pop    %r12
  401a31:	c3                   	retq   

0000000000401a32 <touch3>:
  401a32:	53                   	push   %rbx
  401a33:	48 89 fb             	mov    %rdi,%rbx
  401a36:	c7 05 dc 3a 20 00 03 	movl   $0x3,0x203adc(%rip)        # 60551c <vlevel>
  401a3d:	00 00 00 
  401a40:	48 89 fe             	mov    %rdi,%rsi
  401a43:	8b 3d db 3a 20 00    	mov    0x203adb(%rip),%edi        # 605524 <cookie>
  401a49:	e8 33 ff ff ff       	callq  401981 <hexmatch>
  401a4e:	85 c0                	test   %eax,%eax
  401a50:	74 23                	je     401a75 <touch3+0x43>
  401a52:	48 89 da             	mov    %rbx,%rdx
  401a55:	be 00 35 40 00       	mov    $0x403500,%esi
  401a5a:	bf 01 00 00 00       	mov    $0x1,%edi
  401a5f:	b8 00 00 00 00       	mov    $0x0,%eax
  401a64:	e8 97 f3 ff ff       	callq  400e00 <__printf_chk@plt>
  401a69:	bf 03 00 00 00       	mov    $0x3,%edi
  401a6e:	e8 5e 04 00 00       	callq  401ed1 <validate>
  401a73:	eb 21                	jmp    401a96 <touch3+0x64>
  401a75:	48 89 da             	mov    %rbx,%rdx
  401a78:	be 28 35 40 00       	mov    $0x403528,%esi
  401a7d:	bf 01 00 00 00       	mov    $0x1,%edi
  401a82:	b8 00 00 00 00       	mov    $0x0,%eax
  401a87:	e8 74 f3 ff ff       	callq  400e00 <__printf_chk@plt>
  401a8c:	bf 03 00 00 00       	mov    $0x3,%edi
  401a91:	e8 17 05 00 00       	callq  401fad <fail>
  401a96:	bf 00 00 00 00       	mov    $0x0,%edi
  401a9b:	e8 b0 f3 ff ff       	callq  400e50 <exit@plt>

0000000000401aa0 <test>:
  401aa0:	48 83 ec 08          	sub    $0x8,%rsp
  401aa4:	b8 00 00 00 00       	mov    $0x0,%eax
  401aa9:	e8 31 fe ff ff       	callq  4018df <getbuf>
  401aae:	89 c2                	mov    %eax,%edx
  401ab0:	be 50 35 40 00       	mov    $0x403550,%esi
  401ab5:	bf 01 00 00 00       	mov    $0x1,%edi
  401aba:	b8 00 00 00 00       	mov    $0x0,%eax
  401abf:	e8 3c f3 ff ff       	callq  400e00 <__printf_chk@plt>
  401ac4:	48 83 c4 08          	add    $0x8,%rsp
  401ac8:	c3                   	retq   

0000000000401ac9 <start_farm>:
  401ac9:	b8 01 00 00 00       	mov    $0x1,%eax
  401ace:	c3                   	retq   

0000000000401acf <getval_160>:
  401acf:	b8 15 49 89 c7       	mov    $0xc7894915,%eax
  401ad4:	c3                   	retq   

0000000000401ad5 <getval_153>:
  401ad5:	b8 48 89 c7 90       	mov    $0x90c78948,%eax
  401ada:	c3                   	retq   

0000000000401adb <addval_396>:
  401adb:	8d 87 50 90 90 c3    	lea    -0x3c6f6fb0(%rdi),%eax
  401ae1:	c3                   	retq   

0000000000401ae2 <getval_358>:
  401ae2:	b8 78 c3 f2 df       	mov    $0xdff2c378,%eax
  401ae7:	c3                   	retq   

0000000000401ae8 <addval_278>:
  401ae8:	8d 87 58 90 90 90    	lea    -0x6f6f6fa8(%rdi),%eax
  401aee:	c3                   	retq   

0000000000401aef <setval_292>:
  401aef:	c7 07 b1 95 0b 58    	movl   $0x580b95b1,(%rdi)
  401af5:	c3                   	retq   

0000000000401af6 <addval_174>:
  401af6:	8d 87 48 89 c7 c7    	lea    -0x383876b8(%rdi),%eax
  401afc:	c3                   	retq   

0000000000401afd <setval_393>:
  401afd:	c7 07 48 89 c7 90    	movl   $0x90c78948,(%rdi)
  401b03:	c3                   	retq   

0000000000401b04 <mid_farm>:
  401b04:	b8 01 00 00 00       	mov    $0x1,%eax
  401b09:	c3                   	retq   

0000000000401b0a <add_xy>:
  401b0a:	48 8d 04 37          	lea    (%rdi,%rsi,1),%rax
  401b0e:	c3                   	retq   

0000000000401b0f <setval_399>:
  401b0f:	c7 07 89 c2 20 c0    	movl   $0xc020c289,(%rdi)
  401b15:	c3                   	retq   

0000000000401b16 <setval_281>:
  401b16:	c7 07 89 ce 20 db    	movl   $0xdb20ce89,(%rdi)
  401b1c:	c3                   	retq   

0000000000401b1d <setval_299>:
  401b1d:	c7 07 09 ce 20 c0    	movl   $0xc020ce09,(%rdi)
  401b23:	c3                   	retq   

0000000000401b24 <setval_170>:
  401b24:	c7 07 89 c2 90 90    	movl   $0x9090c289,(%rdi)
  401b2a:	c3                   	retq   

0000000000401b2b <getval_268>:
  401b2b:	b8 c8 89 d1 94       	mov    $0x94d189c8,%eax
  401b30:	c3                   	retq   

0000000000401b31 <addval_448>:
  401b31:	8d 87 48 89 e0 c1    	lea    -0x3e1f76b8(%rdi),%eax
  401b37:	c3                   	retq   

0000000000401b38 <getval_215>:
  401b38:	b8 c9 d1 84 c0       	mov    $0xc084d1c9,%eax
  401b3d:	c3                   	retq   

0000000000401b3e <setval_386>:
  401b3e:	c7 07 89 c2 a4 db    	movl   $0xdba4c289,(%rdi)
  401b44:	c3                   	retq   

0000000000401b45 <addval_154>:
  401b45:	8d 87 48 89 e0 c2    	lea    -0x3d1f76b8(%rdi),%eax
  401b4b:	c3                   	retq   

0000000000401b4c <addval_441>:
  401b4c:	8d 87 89 c2 94 d2    	lea    -0x2d6b3d77(%rdi),%eax
  401b52:	c3                   	retq   

0000000000401b53 <getval_225>:
  401b53:	b8 48 89 e0 c7       	mov    $0xc7e08948,%eax
  401b58:	c3                   	retq   

0000000000401b59 <setval_404>:
  401b59:	c7 07 89 d1 c4 d2    	movl   $0xd2c4d189,(%rdi)
  401b5f:	c3                   	retq   

0000000000401b60 <addval_204>:
  401b60:	8d 87 89 ce c4 c9    	lea    -0x363b3177(%rdi),%eax
  401b66:	c3                   	retq   

0000000000401b67 <addval_492>:
  401b67:	8d 87 c9 c2 90 90    	lea    -0x6f6f3d37(%rdi),%eax
  401b6d:	c3                   	retq   

0000000000401b6e <setval_319>:
  401b6e:	c7 07 48 89 e0 90    	movl   $0x90e08948,(%rdi)
  401b74:	c3                   	retq   

0000000000401b75 <setval_432>:
  401b75:	c7 07 9f 81 d1 90    	movl   $0x90d1819f,(%rdi)
  401b7b:	c3                   	retq   

0000000000401b7c <getval_110>:
  401b7c:	b8 0d 99 d1 90       	mov    $0x90d1990d,%eax
  401b81:	c3                   	retq   

0000000000401b82 <setval_251>:
  401b82:	c7 07 48 89 e0 c7    	movl   $0xc7e08948,(%rdi)
  401b88:	c3                   	retq   

0000000000401b89 <addval_236>:
  401b89:	8d 87 c9 ce 20 c0    	lea    -0x3fdf3137(%rdi),%eax
  401b8f:	c3                   	retq   

0000000000401b90 <addval_475>:
  401b90:	8d 87 1a 89 ce 91    	lea    -0x6e3176e6(%rdi),%eax
  401b96:	c3                   	retq   

0000000000401b97 <setval_349>:
  401b97:	c7 07 89 ce 00 db    	movl   $0xdb00ce89,(%rdi)
  401b9d:	c3                   	retq   

0000000000401b9e <getval_300>:
  401b9e:	b8 2f 89 ce c2       	mov    $0xc2ce892f,%eax
  401ba3:	c3                   	retq   

0000000000401ba4 <getval_389>:
  401ba4:	b8 89 c2 a4 d2       	mov    $0xd2a4c289,%eax
  401ba9:	c3                   	retq   

0000000000401baa <addval_212>:
  401baa:	8d 87 89 d1 38 d2    	lea    -0x2dc72e77(%rdi),%eax
  401bb0:	c3                   	retq   

0000000000401bb1 <setval_247>:
  401bb1:	c7 07 89 ce 08 c0    	movl   $0xc008ce89,(%rdi)
  401bb7:	c3                   	retq   

0000000000401bb8 <addval_461>:
  401bb8:	8d 87 89 c2 30 d2    	lea    -0x2dcf3d77(%rdi),%eax
  401bbe:	c3                   	retq   

0000000000401bbf <getval_365>:
  401bbf:	b8 88 c2 38 db       	mov    $0xdb38c288,%eax
  401bc4:	c3                   	retq   

0000000000401bc5 <getval_308>:
  401bc5:	b8 48 89 e0 c2       	mov    $0xc2e08948,%eax
  401bca:	c3                   	retq   

0000000000401bcb <setval_224>:
  401bcb:	c7 07 48 89 e0 c7    	movl   $0xc7e08948,(%rdi)
  401bd1:	c3                   	retq   

0000000000401bd2 <addval_105>:
  401bd2:	8d 87 89 d1 08 d2    	lea    -0x2df72e77(%rdi),%eax
  401bd8:	c3                   	retq   

0000000000401bd9 <getval_295>:
  401bd9:	b8 c9 d1 90 90       	mov    $0x9090d1c9,%eax
  401bde:	c3                   	retq   

0000000000401bdf <setval_446>:
  401bdf:	c7 07 48 89 e0 c3    	movl   $0xc3e08948,(%rdi)
  401be5:	c3                   	retq   

0000000000401be6 <end_farm>:
  401be6:	b8 01 00 00 00       	mov    $0x1,%eax
  401beb:	c3                   	retq   

0000000000401bec <save_char>:
  401bec:	8b 05 52 45 20 00    	mov    0x204552(%rip),%eax        # 606144 <gets_cnt>
  401bf2:	3d ff 03 00 00       	cmp    $0x3ff,%eax
  401bf7:	7f 49                	jg     401c42 <save_char+0x56>
  401bf9:	8d 14 40             	lea    (%rax,%rax,2),%edx
  401bfc:	89 f9                	mov    %edi,%ecx
  401bfe:	c0 e9 04             	shr    $0x4,%cl
  401c01:	83 e1 0f             	and    $0xf,%ecx
  401c04:	0f b6 b1 70 38 40 00 	movzbl 0x403870(%rcx),%esi
  401c0b:	48 63 ca             	movslq %edx,%rcx
  401c0e:	40 88 b1 40 55 60 00 	mov    %sil,0x605540(%rcx)
  401c15:	8d 4a 01             	lea    0x1(%rdx),%ecx
  401c18:	83 e7 0f             	and    $0xf,%edi
  401c1b:	0f b6 b7 70 38 40 00 	movzbl 0x403870(%rdi),%esi
  401c22:	48 63 c9             	movslq %ecx,%rcx
  401c25:	40 88 b1 40 55 60 00 	mov    %sil,0x605540(%rcx)
  401c2c:	83 c2 02             	add    $0x2,%edx
  401c2f:	48 63 d2             	movslq %edx,%rdx
  401c32:	c6 82 40 55 60 00 20 	movb   $0x20,0x605540(%rdx)
  401c39:	83 c0 01             	add    $0x1,%eax
  401c3c:	89 05 02 45 20 00    	mov    %eax,0x204502(%rip)        # 606144 <gets_cnt>
  401c42:	f3 c3                	repz retq 

0000000000401c44 <save_term>:
  401c44:	8b 05 fa 44 20 00    	mov    0x2044fa(%rip),%eax        # 606144 <gets_cnt>
  401c4a:	8d 04 40             	lea    (%rax,%rax,2),%eax
  401c4d:	48 98                	cltq   
  401c4f:	c6 80 40 55 60 00 00 	movb   $0x0,0x605540(%rax)
  401c56:	c3                   	retq   

0000000000401c57 <check_fail>:
  401c57:	48 83 ec 08          	sub    $0x8,%rsp
  401c5b:	0f be 15 e6 44 20 00 	movsbl 0x2044e6(%rip),%edx        # 606148 <target_prefix>
  401c62:	41 b8 40 55 60 00    	mov    $0x605540,%r8d
  401c68:	8b 0d aa 38 20 00    	mov    0x2038aa(%rip),%ecx        # 605518 <check_level>
  401c6e:	be 73 35 40 00       	mov    $0x403573,%esi
  401c73:	bf 01 00 00 00       	mov    $0x1,%edi
  401c78:	b8 00 00 00 00       	mov    $0x0,%eax
  401c7d:	e8 7e f1 ff ff       	callq  400e00 <__printf_chk@plt>
  401c82:	bf 01 00 00 00       	mov    $0x1,%edi
  401c87:	e8 c4 f1 ff ff       	callq  400e50 <exit@plt>

0000000000401c8c <Gets>:
  401c8c:	41 54                	push   %r12
  401c8e:	55                   	push   %rbp
  401c8f:	53                   	push   %rbx
  401c90:	49 89 fc             	mov    %rdi,%r12
  401c93:	c7 05 a7 44 20 00 00 	movl   $0x0,0x2044a7(%rip)        # 606144 <gets_cnt>
  401c9a:	00 00 00 
  401c9d:	48 89 fb             	mov    %rdi,%rbx
  401ca0:	eb 11                	jmp    401cb3 <Gets+0x27>
  401ca2:	48 8d 6b 01          	lea    0x1(%rbx),%rbp
  401ca6:	88 03                	mov    %al,(%rbx)
  401ca8:	0f b6 f8             	movzbl %al,%edi
  401cab:	e8 3c ff ff ff       	callq  401bec <save_char>
  401cb0:	48 89 eb             	mov    %rbp,%rbx
  401cb3:	48 8b 3d 56 38 20 00 	mov    0x203856(%rip),%rdi        # 605510 <infile>
  401cba:	e8 11 f1 ff ff       	callq  400dd0 <_IO_getc@plt>
  401cbf:	83 f8 ff             	cmp    $0xffffffff,%eax
  401cc2:	74 05                	je     401cc9 <Gets+0x3d>
  401cc4:	83 f8 0a             	cmp    $0xa,%eax
  401cc7:	75 d9                	jne    401ca2 <Gets+0x16>
  401cc9:	c6 03 00             	movb   $0x0,(%rbx)
  401ccc:	b8 00 00 00 00       	mov    $0x0,%eax
  401cd1:	e8 6e ff ff ff       	callq  401c44 <save_term>
  401cd6:	4c 89 e0             	mov    %r12,%rax
  401cd9:	5b                   	pop    %rbx
  401cda:	5d                   	pop    %rbp
  401cdb:	41 5c                	pop    %r12
  401cdd:	c3                   	retq   

0000000000401cde <notify_server>:
  401cde:	53                   	push   %rbx
  401cdf:	48 81 ec 10 40 00 00 	sub    $0x4010,%rsp
  401ce6:	64 48 8b 04 25 28 00 	mov    %fs:0x28,%rax
  401ced:	00 00 
  401cef:	48 89 84 24 08 40 00 	mov    %rax,0x4008(%rsp)
  401cf6:	00 
  401cf7:	31 c0                	xor    %eax,%eax
  401cf9:	83 3d 28 38 20 00 00 	cmpl   $0x0,0x203828(%rip)        # 605528 <is_checker>
  401d00:	0f 85 aa 01 00 00    	jne    401eb0 <notify_server+0x1d2>
  401d06:	89 fb                	mov    %edi,%ebx
  401d08:	8b 05 36 44 20 00    	mov    0x204436(%rip),%eax        # 606144 <gets_cnt>
  401d0e:	83 c0 64             	add    $0x64,%eax
  401d11:	3d 00 20 00 00       	cmp    $0x2000,%eax
  401d16:	7e 1e                	jle    401d36 <notify_server+0x58>
  401d18:	be a8 36 40 00       	mov    $0x4036a8,%esi
  401d1d:	bf 01 00 00 00       	mov    $0x1,%edi
  401d22:	b8 00 00 00 00       	mov    $0x0,%eax
  401d27:	e8 d4 f0 ff ff       	callq  400e00 <__printf_chk@plt>
  401d2c:	bf 01 00 00 00       	mov    $0x1,%edi
  401d31:	e8 1a f1 ff ff       	callq  400e50 <exit@plt>
  401d36:	0f be 05 0b 44 20 00 	movsbl 0x20440b(%rip),%eax        # 606148 <target_prefix>
  401d3d:	83 3d 64 37 20 00 00 	cmpl   $0x0,0x203764(%rip)        # 6054a8 <notify>
  401d44:	74 08                	je     401d4e <notify_server+0x70>
  401d46:	8b 15 d4 37 20 00    	mov    0x2037d4(%rip),%edx        # 605520 <authkey>
  401d4c:	eb 05                	jmp    401d53 <notify_server+0x75>
  401d4e:	ba ff ff ff ff       	mov    $0xffffffff,%edx
  401d53:	85 db                	test   %ebx,%ebx
  401d55:	74 08                	je     401d5f <notify_server+0x81>
  401d57:	41 b9 89 35 40 00    	mov    $0x403589,%r9d
  401d5d:	eb 06                	jmp    401d65 <notify_server+0x87>
  401d5f:	41 b9 8e 35 40 00    	mov    $0x40358e,%r9d
  401d65:	68 40 55 60 00       	pushq  $0x605540
  401d6a:	56                   	push   %rsi
  401d6b:	50                   	push   %rax
  401d6c:	52                   	push   %rdx
  401d6d:	44 8b 05 f4 33 20 00 	mov    0x2033f4(%rip),%r8d        # 605168 <target_id>
  401d74:	b9 93 35 40 00       	mov    $0x403593,%ecx
  401d79:	ba 00 20 00 00       	mov    $0x2000,%edx
  401d7e:	be 01 00 00 00       	mov    $0x1,%esi
  401d83:	48 8d 7c 24 20       	lea    0x20(%rsp),%rdi
  401d88:	b8 00 00 00 00       	mov    $0x0,%eax
  401d8d:	e8 ee f0 ff ff       	callq  400e80 <__sprintf_chk@plt>
  401d92:	48 83 c4 20          	add    $0x20,%rsp
  401d96:	83 3d 0b 37 20 00 00 	cmpl   $0x0,0x20370b(%rip)        # 6054a8 <notify>
  401d9d:	0f 84 81 00 00 00    	je     401e24 <notify_server+0x146>
  401da3:	85 db                	test   %ebx,%ebx
  401da5:	74 6e                	je     401e15 <notify_server+0x137>
  401da7:	4c 8d 8c 24 00 20 00 	lea    0x2000(%rsp),%r9
  401dae:	00 
  401daf:	41 b8 00 00 00 00    	mov    $0x0,%r8d
  401db5:	48 89 e1             	mov    %rsp,%rcx
  401db8:	48 8b 15 b1 33 20 00 	mov    0x2033b1(%rip),%rdx        # 605170 <lab>
  401dbf:	48 8b 35 b2 33 20 00 	mov    0x2033b2(%rip),%rsi        # 605178 <course>
  401dc6:	48 8b 3d 93 33 20 00 	mov    0x203393(%rip),%rdi        # 605160 <user_id>
  401dcd:	e8 09 11 00 00       	callq  402edb <driver_post>
  401dd2:	85 c0                	test   %eax,%eax
  401dd4:	79 26                	jns    401dfc <notify_server+0x11e>
  401dd6:	48 8d 94 24 00 20 00 	lea    0x2000(%rsp),%rdx
  401ddd:	00 
  401dde:	be af 35 40 00       	mov    $0x4035af,%esi
  401de3:	bf 01 00 00 00       	mov    $0x1,%edi
  401de8:	b8 00 00 00 00       	mov    $0x0,%eax
  401ded:	e8 0e f0 ff ff       	callq  400e00 <__printf_chk@plt>
  401df2:	bf 01 00 00 00       	mov    $0x1,%edi
  401df7:	e8 54 f0 ff ff       	callq  400e50 <exit@plt>
  401dfc:	bf d8 36 40 00       	mov    $0x4036d8,%edi
  401e01:	e8 ca ee ff ff       	callq  400cd0 <puts@plt>
  401e06:	bf bb 35 40 00       	mov    $0x4035bb,%edi
  401e0b:	e8 c0 ee ff ff       	callq  400cd0 <puts@plt>
  401e10:	e9 9b 00 00 00       	jmpq   401eb0 <notify_server+0x1d2>
  401e15:	bf c5 35 40 00       	mov    $0x4035c5,%edi
  401e1a:	e8 b1 ee ff ff       	callq  400cd0 <puts@plt>
  401e1f:	e9 8c 00 00 00       	jmpq   401eb0 <notify_server+0x1d2>
  401e24:	85 db                	test   %ebx,%ebx
  401e26:	74 07                	je     401e2f <notify_server+0x151>
  401e28:	ba 89 35 40 00       	mov    $0x403589,%edx
  401e2d:	eb 05                	jmp    401e34 <notify_server+0x156>
  401e2f:	ba 8e 35 40 00       	mov    $0x40358e,%edx
  401e34:	be 10 37 40 00       	mov    $0x403710,%esi
  401e39:	bf 01 00 00 00       	mov    $0x1,%edi
  401e3e:	b8 00 00 00 00       	mov    $0x0,%eax
  401e43:	e8 b8 ef ff ff       	callq  400e00 <__printf_chk@plt>
  401e48:	48 8b 15 11 33 20 00 	mov    0x203311(%rip),%rdx        # 605160 <user_id>
  401e4f:	be cc 35 40 00       	mov    $0x4035cc,%esi
  401e54:	bf 01 00 00 00       	mov    $0x1,%edi
  401e59:	b8 00 00 00 00       	mov    $0x0,%eax
  401e5e:	e8 9d ef ff ff       	callq  400e00 <__printf_chk@plt>
  401e63:	48 8b 15 0e 33 20 00 	mov    0x20330e(%rip),%rdx        # 605178 <course>
  401e6a:	be d9 35 40 00       	mov    $0x4035d9,%esi
  401e6f:	bf 01 00 00 00       	mov    $0x1,%edi
  401e74:	b8 00 00 00 00       	mov    $0x0,%eax
  401e79:	e8 82 ef ff ff       	callq  400e00 <__printf_chk@plt>
  401e7e:	48 8b 15 eb 32 20 00 	mov    0x2032eb(%rip),%rdx        # 605170 <lab>
  401e85:	be e5 35 40 00       	mov    $0x4035e5,%esi
  401e8a:	bf 01 00 00 00       	mov    $0x1,%edi
  401e8f:	b8 00 00 00 00       	mov    $0x0,%eax
  401e94:	e8 67 ef ff ff       	callq  400e00 <__printf_chk@plt>
  401e99:	48 89 e2             	mov    %rsp,%rdx
  401e9c:	be ee 35 40 00       	mov    $0x4035ee,%esi
  401ea1:	bf 01 00 00 00       	mov    $0x1,%edi
  401ea6:	b8 00 00 00 00       	mov    $0x0,%eax
  401eab:	e8 50 ef ff ff       	callq  400e00 <__printf_chk@plt>
  401eb0:	48 8b 84 24 08 40 00 	mov    0x4008(%rsp),%rax
  401eb7:	00 
  401eb8:	64 48 33 04 25 28 00 	xor    %fs:0x28,%rax
  401ebf:	00 00 
  401ec1:	74 05                	je     401ec8 <notify_server+0x1ea>
  401ec3:	e8 28 ee ff ff       	callq  400cf0 <__stack_chk_fail@plt>
  401ec8:	48 81 c4 10 40 00 00 	add    $0x4010,%rsp
  401ecf:	5b                   	pop    %rbx
  401ed0:	c3                   	retq   

0000000000401ed1 <validate>:
  401ed1:	4c 8d 54 24 08       	lea    0x8(%rsp),%r10
  401ed6:	48 83 e4 f0          	and    $0xfffffffffffffff0,%rsp
  401eda:	41 ff 72 f8          	pushq  -0x8(%r10)
  401ede:	55                   	push   %rbp
  401edf:	48 89 e5             	mov    %rsp,%rbp
  401ee2:	41 52                	push   %r10
  401ee4:	53                   	push   %rbx
  401ee5:	89 fb                	mov    %edi,%ebx
  401ee7:	83 3d 3a 36 20 00 00 	cmpl   $0x0,0x20363a(%rip)        # 605528 <is_checker>
  401eee:	74 6b                	je     401f5b <validate+0x8a>
  401ef0:	39 3d 26 36 20 00    	cmp    %edi,0x203626(%rip)        # 60551c <vlevel>
  401ef6:	74 14                	je     401f0c <validate+0x3b>
  401ef8:	bf fa 35 40 00       	mov    $0x4035fa,%edi
  401efd:	e8 ce ed ff ff       	callq  400cd0 <puts@plt>
  401f02:	b8 00 00 00 00       	mov    $0x0,%eax
  401f07:	e8 4b fd ff ff       	callq  401c57 <check_fail>
  401f0c:	8b 15 06 36 20 00    	mov    0x203606(%rip),%edx        # 605518 <check_level>
  401f12:	39 d7                	cmp    %edx,%edi
  401f14:	74 20                	je     401f36 <validate+0x65>
  401f16:	89 f9                	mov    %edi,%ecx
  401f18:	be 38 37 40 00       	mov    $0x403738,%esi
  401f1d:	bf 01 00 00 00       	mov    $0x1,%edi
  401f22:	b8 00 00 00 00       	mov    $0x0,%eax
  401f27:	e8 d4 ee ff ff       	callq  400e00 <__printf_chk@plt>
  401f2c:	b8 00 00 00 00       	mov    $0x0,%eax
  401f31:	e8 21 fd ff ff       	callq  401c57 <check_fail>
  401f36:	0f be 15 0b 42 20 00 	movsbl 0x20420b(%rip),%edx        # 606148 <target_prefix>
  401f3d:	41 b8 40 55 60 00    	mov    $0x605540,%r8d
  401f43:	89 f9                	mov    %edi,%ecx
  401f45:	be 18 36 40 00       	mov    $0x403618,%esi
  401f4a:	bf 01 00 00 00       	mov    $0x1,%edi
  401f4f:	b8 00 00 00 00       	mov    $0x0,%eax
  401f54:	e8 a7 ee ff ff       	callq  400e00 <__printf_chk@plt>
  401f59:	eb 49                	jmp    401fa4 <validate+0xd3>
  401f5b:	3b 3d bb 35 20 00    	cmp    0x2035bb(%rip),%edi        # 60551c <vlevel>
  401f61:	74 18                	je     401f7b <validate+0xaa>
  401f63:	bf fa 35 40 00       	mov    $0x4035fa,%edi
  401f68:	e8 63 ed ff ff       	callq  400cd0 <puts@plt>
  401f6d:	89 de                	mov    %ebx,%esi
  401f6f:	bf 00 00 00 00       	mov    $0x0,%edi
  401f74:	e8 65 fd ff ff       	callq  401cde <notify_server>
  401f79:	eb 29                	jmp    401fa4 <validate+0xd3>
  401f7b:	0f be 0d c6 41 20 00 	movsbl 0x2041c6(%rip),%ecx        # 606148 <target_prefix>
  401f82:	89 fa                	mov    %edi,%edx
  401f84:	be 60 37 40 00       	mov    $0x403760,%esi
  401f89:	bf 01 00 00 00       	mov    $0x1,%edi
  401f8e:	b8 00 00 00 00       	mov    $0x0,%eax
  401f93:	e8 68 ee ff ff       	callq  400e00 <__printf_chk@plt>
  401f98:	89 de                	mov    %ebx,%esi
  401f9a:	bf 01 00 00 00       	mov    $0x1,%edi
  401f9f:	e8 3a fd ff ff       	callq  401cde <notify_server>
  401fa4:	5b                   	pop    %rbx
  401fa5:	41 5a                	pop    %r10
  401fa7:	5d                   	pop    %rbp
  401fa8:	49 8d 62 f8          	lea    -0x8(%r10),%rsp
  401fac:	c3                   	retq   

0000000000401fad <fail>:
  401fad:	48 83 ec 08          	sub    $0x8,%rsp
  401fb1:	83 3d 70 35 20 00 00 	cmpl   $0x0,0x203570(%rip)        # 605528 <is_checker>
  401fb8:	74 0a                	je     401fc4 <fail+0x17>
  401fba:	b8 00 00 00 00       	mov    $0x0,%eax
  401fbf:	e8 93 fc ff ff       	callq  401c57 <check_fail>
  401fc4:	89 fe                	mov    %edi,%esi
  401fc6:	bf 00 00 00 00       	mov    $0x0,%edi
  401fcb:	e8 0e fd ff ff       	callq  401cde <notify_server>
  401fd0:	48 83 c4 08          	add    $0x8,%rsp
  401fd4:	c3                   	retq   

0000000000401fd5 <bushandler>:
  401fd5:	48 83 ec 08          	sub    $0x8,%rsp
  401fd9:	83 3d 48 35 20 00 00 	cmpl   $0x0,0x203548(%rip)        # 605528 <is_checker>
  401fe0:	74 14                	je     401ff6 <bushandler+0x21>
  401fe2:	bf 2d 36 40 00       	mov    $0x40362d,%edi
  401fe7:	e8 e4 ec ff ff       	callq  400cd0 <puts@plt>
  401fec:	b8 00 00 00 00       	mov    $0x0,%eax
  401ff1:	e8 61 fc ff ff       	callq  401c57 <check_fail>
  401ff6:	bf 98 37 40 00       	mov    $0x403798,%edi
  401ffb:	e8 d0 ec ff ff       	callq  400cd0 <puts@plt>
  402000:	bf 37 36 40 00       	mov    $0x403637,%edi
  402005:	e8 c6 ec ff ff       	callq  400cd0 <puts@plt>
  40200a:	be 00 00 00 00       	mov    $0x0,%esi
  40200f:	bf 00 00 00 00       	mov    $0x0,%edi
  402014:	e8 c5 fc ff ff       	callq  401cde <notify_server>
  402019:	bf 01 00 00 00       	mov    $0x1,%edi
  40201e:	e8 2d ee ff ff       	callq  400e50 <exit@plt>

0000000000402023 <seghandler>:
  402023:	48 83 ec 08          	sub    $0x8,%rsp
  402027:	83 3d fa 34 20 00 00 	cmpl   $0x0,0x2034fa(%rip)        # 605528 <is_checker>
  40202e:	74 14                	je     402044 <seghandler+0x21>
  402030:	bf 4d 36 40 00       	mov    $0x40364d,%edi
  402035:	e8 96 ec ff ff       	callq  400cd0 <puts@plt>
  40203a:	b8 00 00 00 00       	mov    $0x0,%eax
  40203f:	e8 13 fc ff ff       	callq  401c57 <check_fail>
  402044:	bf b8 37 40 00       	mov    $0x4037b8,%edi
  402049:	e8 82 ec ff ff       	callq  400cd0 <puts@plt>
  40204e:	bf 37 36 40 00       	mov    $0x403637,%edi
  402053:	e8 78 ec ff ff       	callq  400cd0 <puts@plt>
  402058:	be 00 00 00 00       	mov    $0x0,%esi
  40205d:	bf 00 00 00 00       	mov    $0x0,%edi
  402062:	e8 77 fc ff ff       	callq  401cde <notify_server>
  402067:	bf 01 00 00 00       	mov    $0x1,%edi
  40206c:	e8 df ed ff ff       	callq  400e50 <exit@plt>

0000000000402071 <illegalhandler>:
  402071:	48 83 ec 08          	sub    $0x8,%rsp
  402075:	83 3d ac 34 20 00 00 	cmpl   $0x0,0x2034ac(%rip)        # 605528 <is_checker>
  40207c:	74 14                	je     402092 <illegalhandler+0x21>
  40207e:	bf 60 36 40 00       	mov    $0x403660,%edi
  402083:	e8 48 ec ff ff       	callq  400cd0 <puts@plt>
  402088:	b8 00 00 00 00       	mov    $0x0,%eax
  40208d:	e8 c5 fb ff ff       	callq  401c57 <check_fail>
  402092:	bf e0 37 40 00       	mov    $0x4037e0,%edi
  402097:	e8 34 ec ff ff       	callq  400cd0 <puts@plt>
  40209c:	bf 37 36 40 00       	mov    $0x403637,%edi
  4020a1:	e8 2a ec ff ff       	callq  400cd0 <puts@plt>
  4020a6:	be 00 00 00 00       	mov    $0x0,%esi
  4020ab:	bf 00 00 00 00       	mov    $0x0,%edi
  4020b0:	e8 29 fc ff ff       	callq  401cde <notify_server>
  4020b5:	bf 01 00 00 00       	mov    $0x1,%edi
  4020ba:	e8 91 ed ff ff       	callq  400e50 <exit@plt>

00000000004020bf <sigalrmhandler>:
  4020bf:	48 83 ec 08          	sub    $0x8,%rsp
  4020c3:	83 3d 5e 34 20 00 00 	cmpl   $0x0,0x20345e(%rip)        # 605528 <is_checker>
  4020ca:	74 14                	je     4020e0 <sigalrmhandler+0x21>
  4020cc:	bf 74 36 40 00       	mov    $0x403674,%edi
  4020d1:	e8 fa eb ff ff       	callq  400cd0 <puts@plt>
  4020d6:	b8 00 00 00 00       	mov    $0x0,%eax
  4020db:	e8 77 fb ff ff       	callq  401c57 <check_fail>
  4020e0:	ba 05 00 00 00       	mov    $0x5,%edx
  4020e5:	be 10 38 40 00       	mov    $0x403810,%esi
  4020ea:	bf 01 00 00 00       	mov    $0x1,%edi
  4020ef:	b8 00 00 00 00       	mov    $0x0,%eax
  4020f4:	e8 07 ed ff ff       	callq  400e00 <__printf_chk@plt>
  4020f9:	be 00 00 00 00       	mov    $0x0,%esi
  4020fe:	bf 00 00 00 00       	mov    $0x0,%edi
  402103:	e8 d6 fb ff ff       	callq  401cde <notify_server>
  402108:	bf 01 00 00 00       	mov    $0x1,%edi
  40210d:	e8 3e ed ff ff       	callq  400e50 <exit@plt>

0000000000402112 <launch>:
  402112:	55                   	push   %rbp
  402113:	48 89 e5             	mov    %rsp,%rbp
  402116:	48 83 ec 10          	sub    $0x10,%rsp
  40211a:	48 89 fa             	mov    %rdi,%rdx
  40211d:	64 48 8b 04 25 28 00 	mov    %fs:0x28,%rax
  402124:	00 00 
  402126:	48 89 45 f8          	mov    %rax,-0x8(%rbp)
  40212a:	31 c0                	xor    %eax,%eax
  40212c:	48 8d 47 1e          	lea    0x1e(%rdi),%rax
  402130:	48 83 e0 f0          	and    $0xfffffffffffffff0,%rax
  402134:	48 29 c4             	sub    %rax,%rsp
  402137:	48 8d 7c 24 0f       	lea    0xf(%rsp),%rdi
  40213c:	48 83 e7 f0          	and    $0xfffffffffffffff0,%rdi
  402140:	be f4 00 00 00       	mov    $0xf4,%esi
  402145:	e8 c6 eb ff ff       	callq  400d10 <memset@plt>
  40214a:	48 8b 05 6f 33 20 00 	mov    0x20336f(%rip),%rax        # 6054c0 <stdin@@GLIBC_2.2.5>
  402151:	48 39 05 b8 33 20 00 	cmp    %rax,0x2033b8(%rip)        # 605510 <infile>
  402158:	75 14                	jne    40216e <launch+0x5c>
  40215a:	be 7c 36 40 00       	mov    $0x40367c,%esi
  40215f:	bf 01 00 00 00       	mov    $0x1,%edi
  402164:	b8 00 00 00 00       	mov    $0x0,%eax
  402169:	e8 92 ec ff ff       	callq  400e00 <__printf_chk@plt>
  40216e:	c7 05 a4 33 20 00 00 	movl   $0x0,0x2033a4(%rip)        # 60551c <vlevel>
  402175:	00 00 00 
  402178:	b8 00 00 00 00       	mov    $0x0,%eax
  40217d:	e8 1e f9 ff ff       	callq  401aa0 <test>
  402182:	83 3d 9f 33 20 00 00 	cmpl   $0x0,0x20339f(%rip)        # 605528 <is_checker>
  402189:	74 14                	je     40219f <launch+0x8d>
  40218b:	bf 89 36 40 00       	mov    $0x403689,%edi
  402190:	e8 3b eb ff ff       	callq  400cd0 <puts@plt>
  402195:	b8 00 00 00 00       	mov    $0x0,%eax
  40219a:	e8 b8 fa ff ff       	callq  401c57 <check_fail>
  40219f:	bf 94 36 40 00       	mov    $0x403694,%edi
  4021a4:	e8 27 eb ff ff       	callq  400cd0 <puts@plt>
  4021a9:	48 8b 45 f8          	mov    -0x8(%rbp),%rax
  4021ad:	64 48 33 04 25 28 00 	xor    %fs:0x28,%rax
  4021b4:	00 00 
  4021b6:	74 05                	je     4021bd <launch+0xab>
  4021b8:	e8 33 eb ff ff       	callq  400cf0 <__stack_chk_fail@plt>
  4021bd:	c9                   	leaveq 
  4021be:	c3                   	retq   

00000000004021bf <stable_launch>:
  4021bf:	53                   	push   %rbx
  4021c0:	48 89 3d 41 33 20 00 	mov    %rdi,0x203341(%rip)        # 605508 <global_offset>
  4021c7:	41 b9 00 00 00 00    	mov    $0x0,%r9d
  4021cd:	41 b8 00 00 00 00    	mov    $0x0,%r8d
  4021d3:	b9 32 01 00 00       	mov    $0x132,%ecx
  4021d8:	ba 07 00 00 00       	mov    $0x7,%edx
  4021dd:	be 00 00 10 00       	mov    $0x100000,%esi
  4021e2:	bf 00 60 58 55       	mov    $0x55586000,%edi
  4021e7:	e8 14 eb ff ff       	callq  400d00 <mmap@plt>
  4021ec:	48 89 c3             	mov    %rax,%rbx
  4021ef:	48 3d 00 60 58 55    	cmp    $0x55586000,%rax
  4021f5:	74 37                	je     40222e <stable_launch+0x6f>
  4021f7:	be 00 00 10 00       	mov    $0x100000,%esi
  4021fc:	48 89 c7             	mov    %rax,%rdi
  4021ff:	e8 ec eb ff ff       	callq  400df0 <munmap@plt>
  402204:	b9 00 60 58 55       	mov    $0x55586000,%ecx
  402209:	ba 48 38 40 00       	mov    $0x403848,%edx
  40220e:	be 01 00 00 00       	mov    $0x1,%esi
  402213:	48 8b 3d c6 32 20 00 	mov    0x2032c6(%rip),%rdi        # 6054e0 <stderr@@GLIBC_2.2.5>
  40221a:	b8 00 00 00 00       	mov    $0x0,%eax
  40221f:	e8 4c ec ff ff       	callq  400e70 <__fprintf_chk@plt>
  402224:	bf 01 00 00 00       	mov    $0x1,%edi
  402229:	e8 22 ec ff ff       	callq  400e50 <exit@plt>
  40222e:	48 8d 90 f8 ff 0f 00 	lea    0xffff8(%rax),%rdx
  402235:	48 89 15 14 3f 20 00 	mov    %rdx,0x203f14(%rip)        # 606150 <stack_top>
  40223c:	48 89 e0             	mov    %rsp,%rax
  40223f:	48 89 d4             	mov    %rdx,%rsp
  402242:	48 89 c2             	mov    %rax,%rdx
  402245:	48 89 15 b4 32 20 00 	mov    %rdx,0x2032b4(%rip)        # 605500 <global_save_stack>
  40224c:	48 8b 3d b5 32 20 00 	mov    0x2032b5(%rip),%rdi        # 605508 <global_offset>
  402253:	e8 ba fe ff ff       	callq  402112 <launch>
  402258:	48 8b 05 a1 32 20 00 	mov    0x2032a1(%rip),%rax        # 605500 <global_save_stack>
  40225f:	48 89 c4             	mov    %rax,%rsp
  402262:	be 00 00 10 00       	mov    $0x100000,%esi
  402267:	48 89 df             	mov    %rbx,%rdi
  40226a:	e8 81 eb ff ff       	callq  400df0 <munmap@plt>
  40226f:	5b                   	pop    %rbx
  402270:	c3                   	retq   

0000000000402271 <rio_readinitb>:
  402271:	89 37                	mov    %esi,(%rdi)
  402273:	c7 47 04 00 00 00 00 	movl   $0x0,0x4(%rdi)
  40227a:	48 8d 47 10          	lea    0x10(%rdi),%rax
  40227e:	48 89 47 08          	mov    %rax,0x8(%rdi)
  402282:	c3                   	retq   

0000000000402283 <sigalrm_handler>:
  402283:	48 83 ec 08          	sub    $0x8,%rsp
  402287:	b9 00 00 00 00       	mov    $0x0,%ecx
  40228c:	ba 80 38 40 00       	mov    $0x403880,%edx
  402291:	be 01 00 00 00       	mov    $0x1,%esi
  402296:	48 8b 3d 43 32 20 00 	mov    0x203243(%rip),%rdi        # 6054e0 <stderr@@GLIBC_2.2.5>
  40229d:	b8 00 00 00 00       	mov    $0x0,%eax
  4022a2:	e8 c9 eb ff ff       	callq  400e70 <__fprintf_chk@plt>
  4022a7:	bf 01 00 00 00       	mov    $0x1,%edi
  4022ac:	e8 9f eb ff ff       	callq  400e50 <exit@plt>

00000000004022b1 <rio_writen>:
  4022b1:	41 55                	push   %r13
  4022b3:	41 54                	push   %r12
  4022b5:	55                   	push   %rbp
  4022b6:	53                   	push   %rbx
  4022b7:	48 83 ec 08          	sub    $0x8,%rsp
  4022bb:	41 89 fc             	mov    %edi,%r12d
  4022be:	48 89 f5             	mov    %rsi,%rbp
  4022c1:	49 89 d5             	mov    %rdx,%r13
  4022c4:	48 89 d3             	mov    %rdx,%rbx
  4022c7:	eb 28                	jmp    4022f1 <rio_writen+0x40>
  4022c9:	48 89 da             	mov    %rbx,%rdx
  4022cc:	48 89 ee             	mov    %rbp,%rsi
  4022cf:	44 89 e7             	mov    %r12d,%edi
  4022d2:	e8 09 ea ff ff       	callq  400ce0 <write@plt>
  4022d7:	48 85 c0             	test   %rax,%rax
  4022da:	7f 0f                	jg     4022eb <rio_writen+0x3a>
  4022dc:	e8 af e9 ff ff       	callq  400c90 <__errno_location@plt>
  4022e1:	83 38 04             	cmpl   $0x4,(%rax)
  4022e4:	75 15                	jne    4022fb <rio_writen+0x4a>
  4022e6:	b8 00 00 00 00       	mov    $0x0,%eax
  4022eb:	48 29 c3             	sub    %rax,%rbx
  4022ee:	48 01 c5             	add    %rax,%rbp
  4022f1:	48 85 db             	test   %rbx,%rbx
  4022f4:	75 d3                	jne    4022c9 <rio_writen+0x18>
  4022f6:	4c 89 e8             	mov    %r13,%rax
  4022f9:	eb 07                	jmp    402302 <rio_writen+0x51>
  4022fb:	48 c7 c0 ff ff ff ff 	mov    $0xffffffffffffffff,%rax
  402302:	48 83 c4 08          	add    $0x8,%rsp
  402306:	5b                   	pop    %rbx
  402307:	5d                   	pop    %rbp
  402308:	41 5c                	pop    %r12
  40230a:	41 5d                	pop    %r13
  40230c:	c3                   	retq   

000000000040230d <rio_read>:
  40230d:	41 55                	push   %r13
  40230f:	41 54                	push   %r12
  402311:	55                   	push   %rbp
  402312:	53                   	push   %rbx
  402313:	48 83 ec 08          	sub    $0x8,%rsp
  402317:	48 89 fb             	mov    %rdi,%rbx
  40231a:	49 89 f5             	mov    %rsi,%r13
  40231d:	49 89 d4             	mov    %rdx,%r12
  402320:	eb 2e                	jmp    402350 <rio_read+0x43>
  402322:	48 8d 6b 10          	lea    0x10(%rbx),%rbp
  402326:	8b 3b                	mov    (%rbx),%edi
  402328:	ba 00 20 00 00       	mov    $0x2000,%edx
  40232d:	48 89 ee             	mov    %rbp,%rsi
  402330:	e8 0b ea ff ff       	callq  400d40 <read@plt>
  402335:	89 43 04             	mov    %eax,0x4(%rbx)
  402338:	85 c0                	test   %eax,%eax
  40233a:	79 0c                	jns    402348 <rio_read+0x3b>
  40233c:	e8 4f e9 ff ff       	callq  400c90 <__errno_location@plt>
  402341:	83 38 04             	cmpl   $0x4,(%rax)
  402344:	74 0a                	je     402350 <rio_read+0x43>
  402346:	eb 37                	jmp    40237f <rio_read+0x72>
  402348:	85 c0                	test   %eax,%eax
  40234a:	74 3c                	je     402388 <rio_read+0x7b>
  40234c:	48 89 6b 08          	mov    %rbp,0x8(%rbx)
  402350:	8b 6b 04             	mov    0x4(%rbx),%ebp
  402353:	85 ed                	test   %ebp,%ebp
  402355:	7e cb                	jle    402322 <rio_read+0x15>
  402357:	89 e8                	mov    %ebp,%eax
  402359:	49 39 c4             	cmp    %rax,%r12
  40235c:	77 03                	ja     402361 <rio_read+0x54>
  40235e:	44 89 e5             	mov    %r12d,%ebp
  402361:	4c 63 e5             	movslq %ebp,%r12
  402364:	48 8b 73 08          	mov    0x8(%rbx),%rsi
  402368:	4c 89 e2             	mov    %r12,%rdx
  40236b:	4c 89 ef             	mov    %r13,%rdi
  40236e:	e8 2d ea ff ff       	callq  400da0 <memcpy@plt>
  402373:	4c 01 63 08          	add    %r12,0x8(%rbx)
  402377:	29 6b 04             	sub    %ebp,0x4(%rbx)
  40237a:	4c 89 e0             	mov    %r12,%rax
  40237d:	eb 0e                	jmp    40238d <rio_read+0x80>
  40237f:	48 c7 c0 ff ff ff ff 	mov    $0xffffffffffffffff,%rax
  402386:	eb 05                	jmp    40238d <rio_read+0x80>
  402388:	b8 00 00 00 00       	mov    $0x0,%eax
  40238d:	48 83 c4 08          	add    $0x8,%rsp
  402391:	5b                   	pop    %rbx
  402392:	5d                   	pop    %rbp
  402393:	41 5c                	pop    %r12
  402395:	41 5d                	pop    %r13
  402397:	c3                   	retq   

0000000000402398 <rio_readlineb>:
  402398:	41 55                	push   %r13
  40239a:	41 54                	push   %r12
  40239c:	55                   	push   %rbp
  40239d:	53                   	push   %rbx
  40239e:	48 83 ec 18          	sub    $0x18,%rsp
  4023a2:	49 89 fd             	mov    %rdi,%r13
  4023a5:	48 89 f5             	mov    %rsi,%rbp
  4023a8:	49 89 d4             	mov    %rdx,%r12
  4023ab:	64 48 8b 04 25 28 00 	mov    %fs:0x28,%rax
  4023b2:	00 00 
  4023b4:	48 89 44 24 08       	mov    %rax,0x8(%rsp)
  4023b9:	31 c0                	xor    %eax,%eax
  4023bb:	bb 01 00 00 00       	mov    $0x1,%ebx
  4023c0:	eb 3f                	jmp    402401 <rio_readlineb+0x69>
  4023c2:	ba 01 00 00 00       	mov    $0x1,%edx
  4023c7:	48 8d 74 24 07       	lea    0x7(%rsp),%rsi
  4023cc:	4c 89 ef             	mov    %r13,%rdi
  4023cf:	e8 39 ff ff ff       	callq  40230d <rio_read>
  4023d4:	83 f8 01             	cmp    $0x1,%eax
  4023d7:	75 15                	jne    4023ee <rio_readlineb+0x56>
  4023d9:	48 8d 45 01          	lea    0x1(%rbp),%rax
  4023dd:	0f b6 54 24 07       	movzbl 0x7(%rsp),%edx
  4023e2:	88 55 00             	mov    %dl,0x0(%rbp)
  4023e5:	80 7c 24 07 0a       	cmpb   $0xa,0x7(%rsp)
  4023ea:	75 0e                	jne    4023fa <rio_readlineb+0x62>
  4023ec:	eb 1a                	jmp    402408 <rio_readlineb+0x70>
  4023ee:	85 c0                	test   %eax,%eax
  4023f0:	75 22                	jne    402414 <rio_readlineb+0x7c>
  4023f2:	48 83 fb 01          	cmp    $0x1,%rbx
  4023f6:	75 13                	jne    40240b <rio_readlineb+0x73>
  4023f8:	eb 23                	jmp    40241d <rio_readlineb+0x85>
  4023fa:	48 83 c3 01          	add    $0x1,%rbx
  4023fe:	48 89 c5             	mov    %rax,%rbp
  402401:	4c 39 e3             	cmp    %r12,%rbx
  402404:	72 bc                	jb     4023c2 <rio_readlineb+0x2a>
  402406:	eb 03                	jmp    40240b <rio_readlineb+0x73>
  402408:	48 89 c5             	mov    %rax,%rbp
  40240b:	c6 45 00 00          	movb   $0x0,0x0(%rbp)
  40240f:	48 89 d8             	mov    %rbx,%rax
  402412:	eb 0e                	jmp    402422 <rio_readlineb+0x8a>
  402414:	48 c7 c0 ff ff ff ff 	mov    $0xffffffffffffffff,%rax
  40241b:	eb 05                	jmp    402422 <rio_readlineb+0x8a>
  40241d:	b8 00 00 00 00       	mov    $0x0,%eax
  402422:	48 8b 4c 24 08       	mov    0x8(%rsp),%rcx
  402427:	64 48 33 0c 25 28 00 	xor    %fs:0x28,%rcx
  40242e:	00 00 
  402430:	74 05                	je     402437 <rio_readlineb+0x9f>
  402432:	e8 b9 e8 ff ff       	callq  400cf0 <__stack_chk_fail@plt>
  402437:	48 83 c4 18          	add    $0x18,%rsp
  40243b:	5b                   	pop    %rbx
  40243c:	5d                   	pop    %rbp
  40243d:	41 5c                	pop    %r12
  40243f:	41 5d                	pop    %r13
  402441:	c3                   	retq   

0000000000402442 <urlencode>:
  402442:	41 54                	push   %r12
  402444:	55                   	push   %rbp
  402445:	53                   	push   %rbx
  402446:	48 83 ec 10          	sub    $0x10,%rsp
  40244a:	48 89 fb             	mov    %rdi,%rbx
  40244d:	48 89 f5             	mov    %rsi,%rbp
  402450:	64 48 8b 04 25 28 00 	mov    %fs:0x28,%rax
  402457:	00 00 
  402459:	48 89 44 24 08       	mov    %rax,0x8(%rsp)
  40245e:	31 c0                	xor    %eax,%eax
  402460:	48 c7 c1 ff ff ff ff 	mov    $0xffffffffffffffff,%rcx
  402467:	f2 ae                	repnz scas %es:(%rdi),%al
  402469:	48 f7 d1             	not    %rcx
  40246c:	8d 41 ff             	lea    -0x1(%rcx),%eax
  40246f:	e9 aa 00 00 00       	jmpq   40251e <urlencode+0xdc>
  402474:	44 0f b6 03          	movzbl (%rbx),%r8d
  402478:	41 80 f8 2a          	cmp    $0x2a,%r8b
  40247c:	0f 94 c2             	sete   %dl
  40247f:	41 80 f8 2d          	cmp    $0x2d,%r8b
  402483:	0f 94 c0             	sete   %al
  402486:	08 c2                	or     %al,%dl
  402488:	75 24                	jne    4024ae <urlencode+0x6c>
  40248a:	41 80 f8 2e          	cmp    $0x2e,%r8b
  40248e:	74 1e                	je     4024ae <urlencode+0x6c>
  402490:	41 80 f8 5f          	cmp    $0x5f,%r8b
  402494:	74 18                	je     4024ae <urlencode+0x6c>
  402496:	41 8d 40 d0          	lea    -0x30(%r8),%eax
  40249a:	3c 09                	cmp    $0x9,%al
  40249c:	76 10                	jbe    4024ae <urlencode+0x6c>
  40249e:	41 8d 40 bf          	lea    -0x41(%r8),%eax
  4024a2:	3c 19                	cmp    $0x19,%al
  4024a4:	76 08                	jbe    4024ae <urlencode+0x6c>
  4024a6:	41 8d 40 9f          	lea    -0x61(%r8),%eax
  4024aa:	3c 19                	cmp    $0x19,%al
  4024ac:	77 0a                	ja     4024b8 <urlencode+0x76>
  4024ae:	44 88 45 00          	mov    %r8b,0x0(%rbp)
  4024b2:	48 8d 6d 01          	lea    0x1(%rbp),%rbp
  4024b6:	eb 5f                	jmp    402517 <urlencode+0xd5>
  4024b8:	41 80 f8 20          	cmp    $0x20,%r8b
  4024bc:	75 0a                	jne    4024c8 <urlencode+0x86>
  4024be:	c6 45 00 2b          	movb   $0x2b,0x0(%rbp)
  4024c2:	48 8d 6d 01          	lea    0x1(%rbp),%rbp
  4024c6:	eb 4f                	jmp    402517 <urlencode+0xd5>
  4024c8:	41 8d 40 e0          	lea    -0x20(%r8),%eax
  4024cc:	3c 5f                	cmp    $0x5f,%al
  4024ce:	0f 96 c2             	setbe  %dl
  4024d1:	41 80 f8 09          	cmp    $0x9,%r8b
  4024d5:	0f 94 c0             	sete   %al
  4024d8:	08 c2                	or     %al,%dl
  4024da:	74 50                	je     40252c <urlencode+0xea>
  4024dc:	45 0f b6 c0          	movzbl %r8b,%r8d
  4024e0:	b9 18 39 40 00       	mov    $0x403918,%ecx
  4024e5:	ba 08 00 00 00       	mov    $0x8,%edx
  4024ea:	be 01 00 00 00       	mov    $0x1,%esi
  4024ef:	48 89 e7             	mov    %rsp,%rdi
  4024f2:	b8 00 00 00 00       	mov    $0x0,%eax
  4024f7:	e8 84 e9 ff ff       	callq  400e80 <__sprintf_chk@plt>
  4024fc:	0f b6 04 24          	movzbl (%rsp),%eax
  402500:	88 45 00             	mov    %al,0x0(%rbp)
  402503:	0f b6 44 24 01       	movzbl 0x1(%rsp),%eax
  402508:	88 45 01             	mov    %al,0x1(%rbp)
  40250b:	0f b6 44 24 02       	movzbl 0x2(%rsp),%eax
  402510:	88 45 02             	mov    %al,0x2(%rbp)
  402513:	48 8d 6d 03          	lea    0x3(%rbp),%rbp
  402517:	48 83 c3 01          	add    $0x1,%rbx
  40251b:	44 89 e0             	mov    %r12d,%eax
  40251e:	44 8d 60 ff          	lea    -0x1(%rax),%r12d
  402522:	85 c0                	test   %eax,%eax
  402524:	0f 85 4a ff ff ff    	jne    402474 <urlencode+0x32>
  40252a:	eb 05                	jmp    402531 <urlencode+0xef>
  40252c:	b8 ff ff ff ff       	mov    $0xffffffff,%eax
  402531:	48 8b 74 24 08       	mov    0x8(%rsp),%rsi
  402536:	64 48 33 34 25 28 00 	xor    %fs:0x28,%rsi
  40253d:	00 00 
  40253f:	74 05                	je     402546 <urlencode+0x104>
  402541:	e8 aa e7 ff ff       	callq  400cf0 <__stack_chk_fail@plt>
  402546:	48 83 c4 10          	add    $0x10,%rsp
  40254a:	5b                   	pop    %rbx
  40254b:	5d                   	pop    %rbp
  40254c:	41 5c                	pop    %r12
  40254e:	c3                   	retq   

000000000040254f <submitr>:
  40254f:	41 57                	push   %r15
  402551:	41 56                	push   %r14
  402553:	41 55                	push   %r13
  402555:	41 54                	push   %r12
  402557:	55                   	push   %rbp
  402558:	53                   	push   %rbx
  402559:	48 81 ec 58 a0 00 00 	sub    $0xa058,%rsp
  402560:	49 89 fc             	mov    %rdi,%r12
  402563:	89 74 24 04          	mov    %esi,0x4(%rsp)
  402567:	49 89 d7             	mov    %rdx,%r15
  40256a:	49 89 ce             	mov    %rcx,%r14
  40256d:	4c 89 44 24 08       	mov    %r8,0x8(%rsp)
  402572:	4d 89 cd             	mov    %r9,%r13
  402575:	48 8b 9c 24 90 a0 00 	mov    0xa090(%rsp),%rbx
  40257c:	00 
  40257d:	64 48 8b 04 25 28 00 	mov    %fs:0x28,%rax
  402584:	00 00 
  402586:	48 89 84 24 48 a0 00 	mov    %rax,0xa048(%rsp)
  40258d:	00 
  40258e:	31 c0                	xor    %eax,%eax
  402590:	c7 44 24 1c 00 00 00 	movl   $0x0,0x1c(%rsp)
  402597:	00 
  402598:	ba 00 00 00 00       	mov    $0x0,%edx
  40259d:	be 01 00 00 00       	mov    $0x1,%esi
  4025a2:	bf 02 00 00 00       	mov    $0x2,%edi
  4025a7:	e8 e4 e8 ff ff       	callq  400e90 <socket@plt>
  4025ac:	85 c0                	test   %eax,%eax
  4025ae:	79 4e                	jns    4025fe <submitr+0xaf>
  4025b0:	48 b8 45 72 72 6f 72 	movabs $0x43203a726f727245,%rax
  4025b7:	3a 20 43 
  4025ba:	48 89 03             	mov    %rax,(%rbx)
  4025bd:	48 b8 6c 69 65 6e 74 	movabs $0x6e7520746e65696c,%rax
  4025c4:	20 75 6e 
  4025c7:	48 89 43 08          	mov    %rax,0x8(%rbx)
  4025cb:	48 b8 61 62 6c 65 20 	movabs $0x206f7420656c6261,%rax
  4025d2:	74 6f 20 
  4025d5:	48 89 43 10          	mov    %rax,0x10(%rbx)
  4025d9:	48 b8 63 72 65 61 74 	movabs $0x7320657461657263,%rax
  4025e0:	65 20 73 
  4025e3:	48 89 43 18          	mov    %rax,0x18(%rbx)
  4025e7:	c7 43 20 6f 63 6b 65 	movl   $0x656b636f,0x20(%rbx)
  4025ee:	66 c7 43 24 74 00    	movw   $0x74,0x24(%rbx)
  4025f4:	b8 ff ff ff ff       	mov    $0xffffffff,%eax
  4025f9:	e9 97 06 00 00       	jmpq   402c95 <submitr+0x746>
  4025fe:	89 c5                	mov    %eax,%ebp
  402600:	4c 89 e7             	mov    %r12,%rdi
  402603:	e8 68 e7 ff ff       	callq  400d70 <gethostbyname@plt>
  402608:	48 85 c0             	test   %rax,%rax
  40260b:	75 67                	jne    402674 <submitr+0x125>
  40260d:	48 b8 45 72 72 6f 72 	movabs $0x44203a726f727245,%rax
  402614:	3a 20 44 
  402617:	48 89 03             	mov    %rax,(%rbx)
  40261a:	48 b8 4e 53 20 69 73 	movabs $0x6e7520736920534e,%rax
  402621:	20 75 6e 
  402624:	48 89 43 08          	mov    %rax,0x8(%rbx)
  402628:	48 b8 61 62 6c 65 20 	movabs $0x206f7420656c6261,%rax
  40262f:	74 6f 20 
  402632:	48 89 43 10          	mov    %rax,0x10(%rbx)
  402636:	48 b8 72 65 73 6f 6c 	movabs $0x2065766c6f736572,%rax
  40263d:	76 65 20 
  402640:	48 89 43 18          	mov    %rax,0x18(%rbx)
  402644:	48 b8 73 65 72 76 65 	movabs $0x6120726576726573,%rax
  40264b:	72 20 61 
  40264e:	48 89 43 20          	mov    %rax,0x20(%rbx)
  402652:	c7 43 28 64 64 72 65 	movl   $0x65726464,0x28(%rbx)
  402659:	66 c7 43 2c 73 73    	movw   $0x7373,0x2c(%rbx)
  40265f:	c6 43 2e 00          	movb   $0x0,0x2e(%rbx)
  402663:	89 ef                	mov    %ebp,%edi
  402665:	e8 c6 e6 ff ff       	callq  400d30 <close@plt>
  40266a:	b8 ff ff ff ff       	mov    $0xffffffff,%eax
  40266f:	e9 21 06 00 00       	jmpq   402c95 <submitr+0x746>
  402674:	48 c7 44 24 20 00 00 	movq   $0x0,0x20(%rsp)
  40267b:	00 00 
  40267d:	48 c7 44 24 28 00 00 	movq   $0x0,0x28(%rsp)
  402684:	00 00 
  402686:	66 c7 44 24 20 02 00 	movw   $0x2,0x20(%rsp)
  40268d:	48 63 50 14          	movslq 0x14(%rax),%rdx
  402691:	48 8b 40 18          	mov    0x18(%rax),%rax
  402695:	48 8b 30             	mov    (%rax),%rsi
  402698:	48 8d 7c 24 24       	lea    0x24(%rsp),%rdi
  40269d:	b9 0c 00 00 00       	mov    $0xc,%ecx
  4026a2:	e8 d9 e6 ff ff       	callq  400d80 <__memmove_chk@plt>
  4026a7:	0f b7 44 24 04       	movzwl 0x4(%rsp),%eax
  4026ac:	66 c1 c8 08          	ror    $0x8,%ax
  4026b0:	66 89 44 24 22       	mov    %ax,0x22(%rsp)
  4026b5:	ba 10 00 00 00       	mov    $0x10,%edx
  4026ba:	48 8d 74 24 20       	lea    0x20(%rsp),%rsi
  4026bf:	89 ef                	mov    %ebp,%edi
  4026c1:	e8 9a e7 ff ff       	callq  400e60 <connect@plt>
  4026c6:	85 c0                	test   %eax,%eax
  4026c8:	79 59                	jns    402723 <submitr+0x1d4>
  4026ca:	48 b8 45 72 72 6f 72 	movabs $0x55203a726f727245,%rax
  4026d1:	3a 20 55 
  4026d4:	48 89 03             	mov    %rax,(%rbx)
  4026d7:	48 b8 6e 61 62 6c 65 	movabs $0x6f7420656c62616e,%rax
  4026de:	20 74 6f 
  4026e1:	48 89 43 08          	mov    %rax,0x8(%rbx)
  4026e5:	48 b8 20 63 6f 6e 6e 	movabs $0x7463656e6e6f6320,%rax
  4026ec:	65 63 74 
  4026ef:	48 89 43 10          	mov    %rax,0x10(%rbx)
  4026f3:	48 b8 20 74 6f 20 74 	movabs $0x20656874206f7420,%rax
  4026fa:	68 65 20 
  4026fd:	48 89 43 18          	mov    %rax,0x18(%rbx)
  402701:	c7 43 20 73 65 72 76 	movl   $0x76726573,0x20(%rbx)
  402708:	66 c7 43 24 65 72    	movw   $0x7265,0x24(%rbx)
  40270e:	c6 43 26 00          	movb   $0x0,0x26(%rbx)
  402712:	89 ef                	mov    %ebp,%edi
  402714:	e8 17 e6 ff ff       	callq  400d30 <close@plt>
  402719:	b8 ff ff ff ff       	mov    $0xffffffff,%eax
  40271e:	e9 72 05 00 00       	jmpq   402c95 <submitr+0x746>
  402723:	48 c7 c6 ff ff ff ff 	mov    $0xffffffffffffffff,%rsi
  40272a:	b8 00 00 00 00       	mov    $0x0,%eax
  40272f:	48 89 f1             	mov    %rsi,%rcx
  402732:	4c 89 ef             	mov    %r13,%rdi
  402735:	f2 ae                	repnz scas %es:(%rdi),%al
  402737:	48 f7 d1             	not    %rcx
  40273a:	48 89 ca             	mov    %rcx,%rdx
  40273d:	48 89 f1             	mov    %rsi,%rcx
  402740:	4c 89 ff             	mov    %r15,%rdi
  402743:	f2 ae                	repnz scas %es:(%rdi),%al
  402745:	48 f7 d1             	not    %rcx
  402748:	49 89 c8             	mov    %rcx,%r8
  40274b:	48 89 f1             	mov    %rsi,%rcx
  40274e:	4c 89 f7             	mov    %r14,%rdi
  402751:	f2 ae                	repnz scas %es:(%rdi),%al
  402753:	48 f7 d1             	not    %rcx
  402756:	4d 8d 44 08 fe       	lea    -0x2(%r8,%rcx,1),%r8
  40275b:	48 89 f1             	mov    %rsi,%rcx
  40275e:	48 8b 7c 24 08       	mov    0x8(%rsp),%rdi
  402763:	f2 ae                	repnz scas %es:(%rdi),%al
  402765:	48 89 c8             	mov    %rcx,%rax
  402768:	48 f7 d0             	not    %rax
  40276b:	49 8d 4c 00 ff       	lea    -0x1(%r8,%rax,1),%rcx
  402770:	48 8d 44 52 fd       	lea    -0x3(%rdx,%rdx,2),%rax
  402775:	48 8d 84 01 80 00 00 	lea    0x80(%rcx,%rax,1),%rax
  40277c:	00 
  40277d:	48 3d 00 20 00 00    	cmp    $0x2000,%rax
  402783:	76 72                	jbe    4027f7 <submitr+0x2a8>
  402785:	48 b8 45 72 72 6f 72 	movabs $0x52203a726f727245,%rax
  40278c:	3a 20 52 
  40278f:	48 89 03             	mov    %rax,(%rbx)
  402792:	48 b8 65 73 75 6c 74 	movabs $0x747320746c757365,%rax
  402799:	20 73 74 
  40279c:	48 89 43 08          	mov    %rax,0x8(%rbx)
  4027a0:	48 b8 72 69 6e 67 20 	movabs $0x6f6f7420676e6972,%rax
  4027a7:	74 6f 6f 
  4027aa:	48 89 43 10          	mov    %rax,0x10(%rbx)
  4027ae:	48 b8 20 6c 61 72 67 	movabs $0x202e656772616c20,%rax
  4027b5:	65 2e 20 
  4027b8:	48 89 43 18          	mov    %rax,0x18(%rbx)
  4027bc:	48 b8 49 6e 63 72 65 	movabs $0x6573616572636e49,%rax
  4027c3:	61 73 65 
  4027c6:	48 89 43 20          	mov    %rax,0x20(%rbx)
  4027ca:	48 b8 20 53 55 42 4d 	movabs $0x5254494d42555320,%rax
  4027d1:	49 54 52 
  4027d4:	48 89 43 28          	mov    %rax,0x28(%rbx)
  4027d8:	48 b8 5f 4d 41 58 42 	movabs $0x46554258414d5f,%rax
  4027df:	55 46 00 
  4027e2:	48 89 43 30          	mov    %rax,0x30(%rbx)
  4027e6:	89 ef                	mov    %ebp,%edi
  4027e8:	e8 43 e5 ff ff       	callq  400d30 <close@plt>
  4027ed:	b8 ff ff ff ff       	mov    $0xffffffff,%eax
  4027f2:	e9 9e 04 00 00       	jmpq   402c95 <submitr+0x746>
  4027f7:	48 8d b4 24 40 40 00 	lea    0x4040(%rsp),%rsi
  4027fe:	00 
  4027ff:	b9 00 04 00 00       	mov    $0x400,%ecx
  402804:	b8 00 00 00 00       	mov    $0x0,%eax
  402809:	48 89 f7             	mov    %rsi,%rdi
  40280c:	f3 48 ab             	rep stos %rax,%es:(%rdi)
  40280f:	4c 89 ef             	mov    %r13,%rdi
  402812:	e8 2b fc ff ff       	callq  402442 <urlencode>
  402817:	85 c0                	test   %eax,%eax
  402819:	0f 89 8a 00 00 00    	jns    4028a9 <submitr+0x35a>
  40281f:	48 b8 45 72 72 6f 72 	movabs $0x52203a726f727245,%rax
  402826:	3a 20 52 
  402829:	48 89 03             	mov    %rax,(%rbx)
  40282c:	48 b8 65 73 75 6c 74 	movabs $0x747320746c757365,%rax
  402833:	20 73 74 
  402836:	48 89 43 08          	mov    %rax,0x8(%rbx)
  40283a:	48 b8 72 69 6e 67 20 	movabs $0x6e6f6320676e6972,%rax
  402841:	63 6f 6e 
  402844:	48 89 43 10          	mov    %rax,0x10(%rbx)
  402848:	48 b8 74 61 69 6e 73 	movabs $0x6e6120736e696174,%rax
  40284f:	20 61 6e 
  402852:	48 89 43 18          	mov    %rax,0x18(%rbx)
  402856:	48 b8 20 69 6c 6c 65 	movabs $0x6c6167656c6c6920,%rax
  40285d:	67 61 6c 
  402860:	48 89 43 20          	mov    %rax,0x20(%rbx)
  402864:	48 b8 20 6f 72 20 75 	movabs $0x72706e7520726f20,%rax
  40286b:	6e 70 72 
  40286e:	48 89 43 28          	mov    %rax,0x28(%rbx)
  402872:	48 b8 69 6e 74 61 62 	movabs $0x20656c6261746e69,%rax
  402879:	6c 65 20 
  40287c:	48 89 43 30          	mov    %rax,0x30(%rbx)
  402880:	48 b8 63 68 61 72 61 	movabs $0x6574636172616863,%rax
  402887:	63 74 65 
  40288a:	48 89 43 38          	mov    %rax,0x38(%rbx)
  40288e:	66 c7 43 40 72 2e    	movw   $0x2e72,0x40(%rbx)
  402894:	c6 43 42 00          	movb   $0x0,0x42(%rbx)
  402898:	89 ef                	mov    %ebp,%edi
  40289a:	e8 91 e4 ff ff       	callq  400d30 <close@plt>
  40289f:	b8 ff ff ff ff       	mov    $0xffffffff,%eax
  4028a4:	e9 ec 03 00 00       	jmpq   402c95 <submitr+0x746>
  4028a9:	4c 8d ac 24 40 20 00 	lea    0x2040(%rsp),%r13
  4028b0:	00 
  4028b1:	41 54                	push   %r12
  4028b3:	48 8d 84 24 48 40 00 	lea    0x4048(%rsp),%rax
  4028ba:	00 
  4028bb:	50                   	push   %rax
  4028bc:	4d 89 f9             	mov    %r15,%r9
  4028bf:	4d 89 f0             	mov    %r14,%r8
  4028c2:	b9 a8 38 40 00       	mov    $0x4038a8,%ecx
  4028c7:	ba 00 20 00 00       	mov    $0x2000,%edx
  4028cc:	be 01 00 00 00       	mov    $0x1,%esi
  4028d1:	4c 89 ef             	mov    %r13,%rdi
  4028d4:	b8 00 00 00 00       	mov    $0x0,%eax
  4028d9:	e8 a2 e5 ff ff       	callq  400e80 <__sprintf_chk@plt>
  4028de:	b8 00 00 00 00       	mov    $0x0,%eax
  4028e3:	48 c7 c1 ff ff ff ff 	mov    $0xffffffffffffffff,%rcx
  4028ea:	4c 89 ef             	mov    %r13,%rdi
  4028ed:	f2 ae                	repnz scas %es:(%rdi),%al
  4028ef:	48 f7 d1             	not    %rcx
  4028f2:	48 8d 51 ff          	lea    -0x1(%rcx),%rdx
  4028f6:	4c 89 ee             	mov    %r13,%rsi
  4028f9:	89 ef                	mov    %ebp,%edi
  4028fb:	e8 b1 f9 ff ff       	callq  4022b1 <rio_writen>
  402900:	48 83 c4 10          	add    $0x10,%rsp
  402904:	48 85 c0             	test   %rax,%rax
  402907:	79 6e                	jns    402977 <submitr+0x428>
  402909:	48 b8 45 72 72 6f 72 	movabs $0x43203a726f727245,%rax
  402910:	3a 20 43 
  402913:	48 89 03             	mov    %rax,(%rbx)
  402916:	48 b8 6c 69 65 6e 74 	movabs $0x6e7520746e65696c,%rax
  40291d:	20 75 6e 
  402920:	48 89 43 08          	mov    %rax,0x8(%rbx)
  402924:	48 b8 61 62 6c 65 20 	movabs $0x206f7420656c6261,%rax
  40292b:	74 6f 20 
  40292e:	48 89 43 10          	mov    %rax,0x10(%rbx)
  402932:	48 b8 77 72 69 74 65 	movabs $0x6f74206574697277,%rax
  402939:	20 74 6f 
  40293c:	48 89 43 18          	mov    %rax,0x18(%rbx)
  402940:	48 b8 20 74 68 65 20 	movabs $0x7365722065687420,%rax
  402947:	72 65 73 
  40294a:	48 89 43 20          	mov    %rax,0x20(%rbx)
  40294e:	48 b8 75 6c 74 20 73 	movabs $0x7672657320746c75,%rax
  402955:	65 72 76 
  402958:	48 89 43 28          	mov    %rax,0x28(%rbx)
  40295c:	66 c7 43 30 65 72    	movw   $0x7265,0x30(%rbx)
  402962:	c6 43 32 00          	movb   $0x0,0x32(%rbx)
  402966:	89 ef                	mov    %ebp,%edi
  402968:	e8 c3 e3 ff ff       	callq  400d30 <close@plt>
  40296d:	b8 ff ff ff ff       	mov    $0xffffffff,%eax
  402972:	e9 1e 03 00 00       	jmpq   402c95 <submitr+0x746>
  402977:	89 ee                	mov    %ebp,%esi
  402979:	48 8d 7c 24 30       	lea    0x30(%rsp),%rdi
  40297e:	e8 ee f8 ff ff       	callq  402271 <rio_readinitb>
  402983:	ba 00 20 00 00       	mov    $0x2000,%edx
  402988:	48 8d b4 24 40 20 00 	lea    0x2040(%rsp),%rsi
  40298f:	00 
  402990:	48 8d 7c 24 30       	lea    0x30(%rsp),%rdi
  402995:	e8 fe f9 ff ff       	callq  402398 <rio_readlineb>
  40299a:	48 85 c0             	test   %rax,%rax
  40299d:	7f 7d                	jg     402a1c <submitr+0x4cd>
  40299f:	48 b8 45 72 72 6f 72 	movabs $0x43203a726f727245,%rax
  4029a6:	3a 20 43 
  4029a9:	48 89 03             	mov    %rax,(%rbx)
  4029ac:	48 b8 6c 69 65 6e 74 	movabs $0x6e7520746e65696c,%rax
  4029b3:	20 75 6e 
  4029b6:	48 89 43 08          	mov    %rax,0x8(%rbx)
  4029ba:	48 b8 61 62 6c 65 20 	movabs $0x206f7420656c6261,%rax
  4029c1:	74 6f 20 
  4029c4:	48 89 43 10          	mov    %rax,0x10(%rbx)
  4029c8:	48 b8 72 65 61 64 20 	movabs $0x7269662064616572,%rax
  4029cf:	66 69 72 
  4029d2:	48 89 43 18          	mov    %rax,0x18(%rbx)
  4029d6:	48 b8 73 74 20 68 65 	movabs $0x6564616568207473,%rax
  4029dd:	61 64 65 
  4029e0:	48 89 43 20          	mov    %rax,0x20(%rbx)
  4029e4:	48 b8 72 20 66 72 6f 	movabs $0x72206d6f72662072,%rax
  4029eb:	6d 20 72 
  4029ee:	48 89 43 28          	mov    %rax,0x28(%rbx)
  4029f2:	48 b8 65 73 75 6c 74 	movabs $0x657320746c757365,%rax
  4029f9:	20 73 65 
  4029fc:	48 89 43 30          	mov    %rax,0x30(%rbx)
  402a00:	c7 43 38 72 76 65 72 	movl   $0x72657672,0x38(%rbx)
  402a07:	c6 43 3c 00          	movb   $0x0,0x3c(%rbx)
  402a0b:	89 ef                	mov    %ebp,%edi
  402a0d:	e8 1e e3 ff ff       	callq  400d30 <close@plt>
  402a12:	b8 ff ff ff ff       	mov    $0xffffffff,%eax
  402a17:	e9 79 02 00 00       	jmpq   402c95 <submitr+0x746>
  402a1c:	4c 8d 84 24 40 80 00 	lea    0x8040(%rsp),%r8
  402a23:	00 
  402a24:	48 8d 4c 24 1c       	lea    0x1c(%rsp),%rcx
  402a29:	48 8d 94 24 40 60 00 	lea    0x6040(%rsp),%rdx
  402a30:	00 
  402a31:	be 1f 39 40 00       	mov    $0x40391f,%esi
  402a36:	48 8d bc 24 40 20 00 	lea    0x2040(%rsp),%rdi
  402a3d:	00 
  402a3e:	b8 00 00 00 00       	mov    $0x0,%eax
  402a43:	e8 98 e3 ff ff       	callq  400de0 <__isoc99_sscanf@plt>
  402a48:	e9 95 00 00 00       	jmpq   402ae2 <submitr+0x593>
  402a4d:	ba 00 20 00 00       	mov    $0x2000,%edx
  402a52:	48 8d b4 24 40 20 00 	lea    0x2040(%rsp),%rsi
  402a59:	00 
  402a5a:	48 8d 7c 24 30       	lea    0x30(%rsp),%rdi
  402a5f:	e8 34 f9 ff ff       	callq  402398 <rio_readlineb>
  402a64:	48 85 c0             	test   %rax,%rax
  402a67:	7f 79                	jg     402ae2 <submitr+0x593>
  402a69:	48 b8 45 72 72 6f 72 	movabs $0x43203a726f727245,%rax
  402a70:	3a 20 43 
  402a73:	48 89 03             	mov    %rax,(%rbx)
  402a76:	48 b8 6c 69 65 6e 74 	movabs $0x6e7520746e65696c,%rax
  402a7d:	20 75 6e 
  402a80:	48 89 43 08          	mov    %rax,0x8(%rbx)
  402a84:	48 b8 61 62 6c 65 20 	movabs $0x206f7420656c6261,%rax
  402a8b:	74 6f 20 
  402a8e:	48 89 43 10          	mov    %rax,0x10(%rbx)
  402a92:	48 b8 72 65 61 64 20 	movabs $0x6165682064616572,%rax
  402a99:	68 65 61 
  402a9c:	48 89 43 18          	mov    %rax,0x18(%rbx)
  402aa0:	48 b8 64 65 72 73 20 	movabs $0x6f72662073726564,%rax
  402aa7:	66 72 6f 
  402aaa:	48 89 43 20          	mov    %rax,0x20(%rbx)
  402aae:	48 b8 6d 20 74 68 65 	movabs $0x657220656874206d,%rax
  402ab5:	20 72 65 
  402ab8:	48 89 43 28          	mov    %rax,0x28(%rbx)
  402abc:	48 b8 73 75 6c 74 20 	movabs $0x72657320746c7573,%rax
  402ac3:	73 65 72 
  402ac6:	48 89 43 30          	mov    %rax,0x30(%rbx)
  402aca:	c7 43 38 76 65 72 00 	movl   $0x726576,0x38(%rbx)
  402ad1:	89 ef                	mov    %ebp,%edi
  402ad3:	e8 58 e2 ff ff       	callq  400d30 <close@plt>
  402ad8:	b8 ff ff ff ff       	mov    $0xffffffff,%eax
  402add:	e9 b3 01 00 00       	jmpq   402c95 <submitr+0x746>
  402ae2:	0f b6 94 24 40 20 00 	movzbl 0x2040(%rsp),%edx
  402ae9:	00 
  402aea:	b8 0d 00 00 00       	mov    $0xd,%eax
  402aef:	29 d0                	sub    %edx,%eax
  402af1:	75 1b                	jne    402b0e <submitr+0x5bf>
  402af3:	0f b6 94 24 41 20 00 	movzbl 0x2041(%rsp),%edx
  402afa:	00 
  402afb:	b8 0a 00 00 00       	mov    $0xa,%eax
  402b00:	29 d0                	sub    %edx,%eax
  402b02:	75 0a                	jne    402b0e <submitr+0x5bf>
  402b04:	0f b6 84 24 42 20 00 	movzbl 0x2042(%rsp),%eax
  402b0b:	00 
  402b0c:	f7 d8                	neg    %eax
  402b0e:	85 c0                	test   %eax,%eax
  402b10:	0f 85 37 ff ff ff    	jne    402a4d <submitr+0x4fe>
  402b16:	ba 00 20 00 00       	mov    $0x2000,%edx
  402b1b:	48 8d b4 24 40 20 00 	lea    0x2040(%rsp),%rsi
  402b22:	00 
  402b23:	48 8d 7c 24 30       	lea    0x30(%rsp),%rdi
  402b28:	e8 6b f8 ff ff       	callq  402398 <rio_readlineb>
  402b2d:	48 85 c0             	test   %rax,%rax
  402b30:	0f 8f 83 00 00 00    	jg     402bb9 <submitr+0x66a>
  402b36:	48 b8 45 72 72 6f 72 	movabs $0x43203a726f727245,%rax
  402b3d:	3a 20 43 
  402b40:	48 89 03             	mov    %rax,(%rbx)
  402b43:	48 b8 6c 69 65 6e 74 	movabs $0x6e7520746e65696c,%rax
  402b4a:	20 75 6e 
  402b4d:	48 89 43 08          	mov    %rax,0x8(%rbx)
  402b51:	48 b8 61 62 6c 65 20 	movabs $0x206f7420656c6261,%rax
  402b58:	74 6f 20 
  402b5b:	48 89 43 10          	mov    %rax,0x10(%rbx)
  402b5f:	48 b8 72 65 61 64 20 	movabs $0x6174732064616572,%rax
  402b66:	73 74 61 
  402b69:	48 89 43 18          	mov    %rax,0x18(%rbx)
  402b6d:	48 b8 74 75 73 20 6d 	movabs $0x7373656d20737574,%rax
  402b74:	65 73 73 
  402b77:	48 89 43 20          	mov    %rax,0x20(%rbx)
  402b7b:	48 b8 61 67 65 20 66 	movabs $0x6d6f726620656761,%rax
  402b82:	72 6f 6d 
  402b85:	48 89 43 28          	mov    %rax,0x28(%rbx)
  402b89:	48 b8 20 72 65 73 75 	movabs $0x20746c7573657220,%rax
  402b90:	6c 74 20 
  402b93:	48 89 43 30          	mov    %rax,0x30(%rbx)
  402b97:	c7 43 38 73 65 72 76 	movl   $0x76726573,0x38(%rbx)
  402b9e:	66 c7 43 3c 65 72    	movw   $0x7265,0x3c(%rbx)
  402ba4:	c6 43 3e 00          	movb   $0x0,0x3e(%rbx)
  402ba8:	89 ef                	mov    %ebp,%edi
  402baa:	e8 81 e1 ff ff       	callq  400d30 <close@plt>
  402baf:	b8 ff ff ff ff       	mov    $0xffffffff,%eax
  402bb4:	e9 dc 00 00 00       	jmpq   402c95 <submitr+0x746>
  402bb9:	44 8b 44 24 1c       	mov    0x1c(%rsp),%r8d
  402bbe:	41 81 f8 c8 00 00 00 	cmp    $0xc8,%r8d
  402bc5:	74 37                	je     402bfe <submitr+0x6af>
  402bc7:	4c 8d 8c 24 40 80 00 	lea    0x8040(%rsp),%r9
  402bce:	00 
  402bcf:	b9 e8 38 40 00       	mov    $0x4038e8,%ecx
  402bd4:	48 c7 c2 ff ff ff ff 	mov    $0xffffffffffffffff,%rdx
  402bdb:	be 01 00 00 00       	mov    $0x1,%esi
  402be0:	48 89 df             	mov    %rbx,%rdi
  402be3:	b8 00 00 00 00       	mov    $0x0,%eax
  402be8:	e8 93 e2 ff ff       	callq  400e80 <__sprintf_chk@plt>
  402bed:	89 ef                	mov    %ebp,%edi
  402bef:	e8 3c e1 ff ff       	callq  400d30 <close@plt>
  402bf4:	b8 ff ff ff ff       	mov    $0xffffffff,%eax
  402bf9:	e9 97 00 00 00       	jmpq   402c95 <submitr+0x746>
  402bfe:	48 8d b4 24 40 20 00 	lea    0x2040(%rsp),%rsi
  402c05:	00 
  402c06:	48 89 df             	mov    %rbx,%rdi
  402c09:	e8 b2 e0 ff ff       	callq  400cc0 <strcpy@plt>
  402c0e:	89 ef                	mov    %ebp,%edi
  402c10:	e8 1b e1 ff ff       	callq  400d30 <close@plt>
  402c15:	0f b6 03             	movzbl (%rbx),%eax
  402c18:	ba 4f 00 00 00       	mov    $0x4f,%edx
  402c1d:	29 c2                	sub    %eax,%edx
  402c1f:	75 22                	jne    402c43 <submitr+0x6f4>
  402c21:	0f b6 4b 01          	movzbl 0x1(%rbx),%ecx
  402c25:	b8 4b 00 00 00       	mov    $0x4b,%eax
  402c2a:	29 c8                	sub    %ecx,%eax
  402c2c:	75 17                	jne    402c45 <submitr+0x6f6>
  402c2e:	0f b6 4b 02          	movzbl 0x2(%rbx),%ecx
  402c32:	b8 0a 00 00 00       	mov    $0xa,%eax
  402c37:	29 c8                	sub    %ecx,%eax
  402c39:	75 0a                	jne    402c45 <submitr+0x6f6>
  402c3b:	0f b6 43 03          	movzbl 0x3(%rbx),%eax
  402c3f:	f7 d8                	neg    %eax
  402c41:	eb 02                	jmp    402c45 <submitr+0x6f6>
  402c43:	89 d0                	mov    %edx,%eax
  402c45:	85 c0                	test   %eax,%eax
  402c47:	74 40                	je     402c89 <submitr+0x73a>
  402c49:	bf 30 39 40 00       	mov    $0x403930,%edi
  402c4e:	b9 05 00 00 00       	mov    $0x5,%ecx
  402c53:	48 89 de             	mov    %rbx,%rsi
  402c56:	f3 a6                	repz cmpsb %es:(%rdi),%ds:(%rsi)
  402c58:	0f 97 c0             	seta   %al
  402c5b:	0f 92 c1             	setb   %cl
  402c5e:	29 c8                	sub    %ecx,%eax
  402c60:	0f be c0             	movsbl %al,%eax
  402c63:	85 c0                	test   %eax,%eax
  402c65:	74 2e                	je     402c95 <submitr+0x746>
  402c67:	85 d2                	test   %edx,%edx
  402c69:	75 13                	jne    402c7e <submitr+0x72f>
  402c6b:	0f b6 43 01          	movzbl 0x1(%rbx),%eax
  402c6f:	ba 4b 00 00 00       	mov    $0x4b,%edx
  402c74:	29 c2                	sub    %eax,%edx
  402c76:	75 06                	jne    402c7e <submitr+0x72f>
  402c78:	0f b6 53 02          	movzbl 0x2(%rbx),%edx
  402c7c:	f7 da                	neg    %edx
  402c7e:	85 d2                	test   %edx,%edx
  402c80:	75 0e                	jne    402c90 <submitr+0x741>
  402c82:	b8 00 00 00 00       	mov    $0x0,%eax
  402c87:	eb 0c                	jmp    402c95 <submitr+0x746>
  402c89:	b8 00 00 00 00       	mov    $0x0,%eax
  402c8e:	eb 05                	jmp    402c95 <submitr+0x746>
  402c90:	b8 ff ff ff ff       	mov    $0xffffffff,%eax
  402c95:	48 8b 9c 24 48 a0 00 	mov    0xa048(%rsp),%rbx
  402c9c:	00 
  402c9d:	64 48 33 1c 25 28 00 	xor    %fs:0x28,%rbx
  402ca4:	00 00 
  402ca6:	74 05                	je     402cad <submitr+0x75e>
  402ca8:	e8 43 e0 ff ff       	callq  400cf0 <__stack_chk_fail@plt>
  402cad:	48 81 c4 58 a0 00 00 	add    $0xa058,%rsp
  402cb4:	5b                   	pop    %rbx
  402cb5:	5d                   	pop    %rbp
  402cb6:	41 5c                	pop    %r12
  402cb8:	41 5d                	pop    %r13
  402cba:	41 5e                	pop    %r14
  402cbc:	41 5f                	pop    %r15
  402cbe:	c3                   	retq   

0000000000402cbf <init_timeout>:
  402cbf:	85 ff                	test   %edi,%edi
  402cc1:	74 23                	je     402ce6 <init_timeout+0x27>
  402cc3:	53                   	push   %rbx
  402cc4:	89 fb                	mov    %edi,%ebx
  402cc6:	85 ff                	test   %edi,%edi
  402cc8:	79 05                	jns    402ccf <init_timeout+0x10>
  402cca:	bb 00 00 00 00       	mov    $0x0,%ebx
  402ccf:	be 83 22 40 00       	mov    $0x402283,%esi
  402cd4:	bf 0e 00 00 00       	mov    $0xe,%edi
  402cd9:	e8 82 e0 ff ff       	callq  400d60 <signal@plt>
  402cde:	89 df                	mov    %ebx,%edi
  402ce0:	e8 3b e0 ff ff       	callq  400d20 <alarm@plt>
  402ce5:	5b                   	pop    %rbx
  402ce6:	f3 c3                	repz retq 

0000000000402ce8 <init_driver>:
  402ce8:	55                   	push   %rbp
  402ce9:	53                   	push   %rbx
  402cea:	48 83 ec 28          	sub    $0x28,%rsp
  402cee:	48 89 fd             	mov    %rdi,%rbp
  402cf1:	64 48 8b 04 25 28 00 	mov    %fs:0x28,%rax
  402cf8:	00 00 
  402cfa:	48 89 44 24 18       	mov    %rax,0x18(%rsp)
  402cff:	31 c0                	xor    %eax,%eax
  402d01:	be 01 00 00 00       	mov    $0x1,%esi
  402d06:	bf 0d 00 00 00       	mov    $0xd,%edi
  402d0b:	e8 50 e0 ff ff       	callq  400d60 <signal@plt>
  402d10:	be 01 00 00 00       	mov    $0x1,%esi
  402d15:	bf 1d 00 00 00       	mov    $0x1d,%edi
  402d1a:	e8 41 e0 ff ff       	callq  400d60 <signal@plt>
  402d1f:	be 01 00 00 00       	mov    $0x1,%esi
  402d24:	bf 1d 00 00 00       	mov    $0x1d,%edi
  402d29:	e8 32 e0 ff ff       	callq  400d60 <signal@plt>
  402d2e:	ba 00 00 00 00       	mov    $0x0,%edx
  402d33:	be 01 00 00 00       	mov    $0x1,%esi
  402d38:	bf 02 00 00 00       	mov    $0x2,%edi
  402d3d:	e8 4e e1 ff ff       	callq  400e90 <socket@plt>
  402d42:	85 c0                	test   %eax,%eax
  402d44:	79 4f                	jns    402d95 <init_driver+0xad>
  402d46:	48 b8 45 72 72 6f 72 	movabs $0x43203a726f727245,%rax
  402d4d:	3a 20 43 
  402d50:	48 89 45 00          	mov    %rax,0x0(%rbp)
  402d54:	48 b8 6c 69 65 6e 74 	movabs $0x6e7520746e65696c,%rax
  402d5b:	20 75 6e 
  402d5e:	48 89 45 08          	mov    %rax,0x8(%rbp)
  402d62:	48 b8 61 62 6c 65 20 	movabs $0x206f7420656c6261,%rax
  402d69:	74 6f 20 
  402d6c:	48 89 45 10          	mov    %rax,0x10(%rbp)
  402d70:	48 b8 63 72 65 61 74 	movabs $0x7320657461657263,%rax
  402d77:	65 20 73 
  402d7a:	48 89 45 18          	mov    %rax,0x18(%rbp)
  402d7e:	c7 45 20 6f 63 6b 65 	movl   $0x656b636f,0x20(%rbp)
  402d85:	66 c7 45 24 74 00    	movw   $0x74,0x24(%rbp)
  402d8b:	b8 ff ff ff ff       	mov    $0xffffffff,%eax
  402d90:	e9 2a 01 00 00       	jmpq   402ebf <init_driver+0x1d7>
  402d95:	89 c3                	mov    %eax,%ebx
  402d97:	bf 35 39 40 00       	mov    $0x403935,%edi
  402d9c:	e8 cf df ff ff       	callq  400d70 <gethostbyname@plt>
  402da1:	48 85 c0             	test   %rax,%rax
  402da4:	75 68                	jne    402e0e <init_driver+0x126>
  402da6:	48 b8 45 72 72 6f 72 	movabs $0x44203a726f727245,%rax
  402dad:	3a 20 44 
  402db0:	48 89 45 00          	mov    %rax,0x0(%rbp)
  402db4:	48 b8 4e 53 20 69 73 	movabs $0x6e7520736920534e,%rax
  402dbb:	20 75 6e 
  402dbe:	48 89 45 08          	mov    %rax,0x8(%rbp)
  402dc2:	48 b8 61 62 6c 65 20 	movabs $0x206f7420656c6261,%rax
  402dc9:	74 6f 20 
  402dcc:	48 89 45 10          	mov    %rax,0x10(%rbp)
  402dd0:	48 b8 72 65 73 6f 6c 	movabs $0x2065766c6f736572,%rax
  402dd7:	76 65 20 
  402dda:	48 89 45 18          	mov    %rax,0x18(%rbp)
  402dde:	48 b8 73 65 72 76 65 	movabs $0x6120726576726573,%rax
  402de5:	72 20 61 
  402de8:	48 89 45 20          	mov    %rax,0x20(%rbp)
  402dec:	c7 45 28 64 64 72 65 	movl   $0x65726464,0x28(%rbp)
  402df3:	66 c7 45 2c 73 73    	movw   $0x7373,0x2c(%rbp)
  402df9:	c6 45 2e 00          	movb   $0x0,0x2e(%rbp)
  402dfd:	89 df                	mov    %ebx,%edi
  402dff:	e8 2c df ff ff       	callq  400d30 <close@plt>
  402e04:	b8 ff ff ff ff       	mov    $0xffffffff,%eax
  402e09:	e9 b1 00 00 00       	jmpq   402ebf <init_driver+0x1d7>
  402e0e:	48 c7 04 24 00 00 00 	movq   $0x0,(%rsp)
  402e15:	00 
  402e16:	48 c7 44 24 08 00 00 	movq   $0x0,0x8(%rsp)
  402e1d:	00 00 
  402e1f:	66 c7 04 24 02 00    	movw   $0x2,(%rsp)
  402e25:	48 63 50 14          	movslq 0x14(%rax),%rdx
  402e29:	48 8b 40 18          	mov    0x18(%rax),%rax
  402e2d:	48 8b 30             	mov    (%rax),%rsi
  402e30:	48 8d 7c 24 04       	lea    0x4(%rsp),%rdi
  402e35:	b9 0c 00 00 00       	mov    $0xc,%ecx
  402e3a:	e8 41 df ff ff       	callq  400d80 <__memmove_chk@plt>
  402e3f:	66 c7 44 24 02 3c 9a 	movw   $0x9a3c,0x2(%rsp)
  402e46:	ba 10 00 00 00       	mov    $0x10,%edx
  402e4b:	48 89 e6             	mov    %rsp,%rsi
  402e4e:	89 df                	mov    %ebx,%edi
  402e50:	e8 0b e0 ff ff       	callq  400e60 <connect@plt>
  402e55:	85 c0                	test   %eax,%eax
  402e57:	79 50                	jns    402ea9 <init_driver+0x1c1>
  402e59:	48 b8 45 72 72 6f 72 	movabs $0x55203a726f727245,%rax
  402e60:	3a 20 55 
  402e63:	48 89 45 00          	mov    %rax,0x0(%rbp)
  402e67:	48 b8 6e 61 62 6c 65 	movabs $0x6f7420656c62616e,%rax
  402e6e:	20 74 6f 
  402e71:	48 89 45 08          	mov    %rax,0x8(%rbp)
  402e75:	48 b8 20 63 6f 6e 6e 	movabs $0x7463656e6e6f6320,%rax
  402e7c:	65 63 74 
  402e7f:	48 89 45 10          	mov    %rax,0x10(%rbp)
  402e83:	48 b8 20 74 6f 20 73 	movabs $0x76726573206f7420,%rax
  402e8a:	65 72 76 
  402e8d:	48 89 45 18          	mov    %rax,0x18(%rbp)
  402e91:	66 c7 45 20 65 72    	movw   $0x7265,0x20(%rbp)
  402e97:	c6 45 22 00          	movb   $0x0,0x22(%rbp)
  402e9b:	89 df                	mov    %ebx,%edi
  402e9d:	e8 8e de ff ff       	callq  400d30 <close@plt>
  402ea2:	b8 ff ff ff ff       	mov    $0xffffffff,%eax
  402ea7:	eb 16                	jmp    402ebf <init_driver+0x1d7>
  402ea9:	89 df                	mov    %ebx,%edi
  402eab:	e8 80 de ff ff       	callq  400d30 <close@plt>
  402eb0:	66 c7 45 00 4f 4b    	movw   $0x4b4f,0x0(%rbp)
  402eb6:	c6 45 02 00          	movb   $0x0,0x2(%rbp)
  402eba:	b8 00 00 00 00       	mov    $0x0,%eax
  402ebf:	48 8b 4c 24 18       	mov    0x18(%rsp),%rcx
  402ec4:	64 48 33 0c 25 28 00 	xor    %fs:0x28,%rcx
  402ecb:	00 00 
  402ecd:	74 05                	je     402ed4 <init_driver+0x1ec>
  402ecf:	e8 1c de ff ff       	callq  400cf0 <__stack_chk_fail@plt>
  402ed4:	48 83 c4 28          	add    $0x28,%rsp
  402ed8:	5b                   	pop    %rbx
  402ed9:	5d                   	pop    %rbp
  402eda:	c3                   	retq   

0000000000402edb <driver_post>:
  402edb:	53                   	push   %rbx
  402edc:	4c 89 cb             	mov    %r9,%rbx
  402edf:	45 85 c0             	test   %r8d,%r8d
  402ee2:	74 27                	je     402f0b <driver_post+0x30>
  402ee4:	48 89 ca             	mov    %rcx,%rdx
  402ee7:	be 43 39 40 00       	mov    $0x403943,%esi
  402eec:	bf 01 00 00 00       	mov    $0x1,%edi
  402ef1:	b8 00 00 00 00       	mov    $0x0,%eax
  402ef6:	e8 05 df ff ff       	callq  400e00 <__printf_chk@plt>
  402efb:	66 c7 03 4f 4b       	movw   $0x4b4f,(%rbx)
  402f00:	c6 43 02 00          	movb   $0x0,0x2(%rbx)
  402f04:	b8 00 00 00 00       	mov    $0x0,%eax
  402f09:	eb 3f                	jmp    402f4a <driver_post+0x6f>
  402f0b:	48 85 ff             	test   %rdi,%rdi
  402f0e:	74 2c                	je     402f3c <driver_post+0x61>
  402f10:	80 3f 00             	cmpb   $0x0,(%rdi)
  402f13:	74 27                	je     402f3c <driver_post+0x61>
  402f15:	48 83 ec 08          	sub    $0x8,%rsp
  402f19:	41 51                	push   %r9
  402f1b:	49 89 c9             	mov    %rcx,%r9
  402f1e:	49 89 d0             	mov    %rdx,%r8
  402f21:	48 89 f9             	mov    %rdi,%rcx
  402f24:	48 89 f2             	mov    %rsi,%rdx
  402f27:	be 9a 3c 00 00       	mov    $0x3c9a,%esi
  402f2c:	bf 35 39 40 00       	mov    $0x403935,%edi
  402f31:	e8 19 f6 ff ff       	callq  40254f <submitr>
  402f36:	48 83 c4 10          	add    $0x10,%rsp
  402f3a:	eb 0e                	jmp    402f4a <driver_post+0x6f>
  402f3c:	66 c7 03 4f 4b       	movw   $0x4b4f,(%rbx)
  402f41:	c6 43 02 00          	movb   $0x0,0x2(%rbx)
  402f45:	b8 00 00 00 00       	mov    $0x0,%eax
  402f4a:	5b                   	pop    %rbx
  402f4b:	c3                   	retq   

0000000000402f4c <check>:
  402f4c:	89 f8                	mov    %edi,%eax
  402f4e:	c1 e8 1c             	shr    $0x1c,%eax
  402f51:	85 c0                	test   %eax,%eax
  402f53:	74 1d                	je     402f72 <check+0x26>
  402f55:	b9 00 00 00 00       	mov    $0x0,%ecx
  402f5a:	eb 0b                	jmp    402f67 <check+0x1b>
  402f5c:	89 f8                	mov    %edi,%eax
  402f5e:	d3 e8                	shr    %cl,%eax
  402f60:	3c 0a                	cmp    $0xa,%al
  402f62:	74 14                	je     402f78 <check+0x2c>
  402f64:	83 c1 08             	add    $0x8,%ecx
  402f67:	83 f9 1f             	cmp    $0x1f,%ecx
  402f6a:	7e f0                	jle    402f5c <check+0x10>
  402f6c:	b8 01 00 00 00       	mov    $0x1,%eax
  402f71:	c3                   	retq   
  402f72:	b8 00 00 00 00       	mov    $0x0,%eax
  402f77:	c3                   	retq   
  402f78:	b8 00 00 00 00       	mov    $0x0,%eax
  402f7d:	c3                   	retq   

0000000000402f7e <gencookie>:
  402f7e:	53                   	push   %rbx
  402f7f:	83 c7 01             	add    $0x1,%edi
  402f82:	e8 19 dd ff ff       	callq  400ca0 <srandom@plt>
  402f87:	e8 34 de ff ff       	callq  400dc0 <random@plt>
  402f8c:	89 c3                	mov    %eax,%ebx
  402f8e:	89 c7                	mov    %eax,%edi
  402f90:	e8 b7 ff ff ff       	callq  402f4c <check>
  402f95:	85 c0                	test   %eax,%eax
  402f97:	74 ee                	je     402f87 <gencookie+0x9>
  402f99:	89 d8                	mov    %ebx,%eax
  402f9b:	5b                   	pop    %rbx
  402f9c:	c3                   	retq   
  402f9d:	0f 1f 00             	nopl   (%rax)

0000000000402fa0 <__libc_csu_init>:
  402fa0:	41 57                	push   %r15
  402fa2:	41 56                	push   %r14
  402fa4:	41 89 ff             	mov    %edi,%r15d
  402fa7:	41 55                	push   %r13
  402fa9:	41 54                	push   %r12
  402fab:	4c 8d 25 5e 1e 20 00 	lea    0x201e5e(%rip),%r12        # 604e10 <__frame_dummy_init_array_entry>
  402fb2:	55                   	push   %rbp
  402fb3:	48 8d 2d 5e 1e 20 00 	lea    0x201e5e(%rip),%rbp        # 604e18 <__init_array_end>
  402fba:	53                   	push   %rbx
  402fbb:	49 89 f6             	mov    %rsi,%r14
  402fbe:	49 89 d5             	mov    %rdx,%r13
  402fc1:	4c 29 e5             	sub    %r12,%rbp
  402fc4:	48 83 ec 08          	sub    $0x8,%rsp
  402fc8:	48 c1 fd 03          	sar    $0x3,%rbp
  402fcc:	e8 77 dc ff ff       	callq  400c48 <_init>
  402fd1:	48 85 ed             	test   %rbp,%rbp
  402fd4:	74 20                	je     402ff6 <__libc_csu_init+0x56>
  402fd6:	31 db                	xor    %ebx,%ebx
  402fd8:	0f 1f 84 00 00 00 00 	nopl   0x0(%rax,%rax,1)
  402fdf:	00 
  402fe0:	4c 89 ea             	mov    %r13,%rdx
  402fe3:	4c 89 f6             	mov    %r14,%rsi
  402fe6:	44 89 ff             	mov    %r15d,%edi
  402fe9:	41 ff 14 dc          	callq  *(%r12,%rbx,8)
  402fed:	48 83 c3 01          	add    $0x1,%rbx
  402ff1:	48 39 eb             	cmp    %rbp,%rbx
  402ff4:	75 ea                	jne    402fe0 <__libc_csu_init+0x40>
  402ff6:	48 83 c4 08          	add    $0x8,%rsp
  402ffa:	5b                   	pop    %rbx
  402ffb:	5d                   	pop    %rbp
  402ffc:	41 5c                	pop    %r12
  402ffe:	41 5d                	pop    %r13
  403000:	41 5e                	pop    %r14
  403002:	41 5f                	pop    %r15
  403004:	c3                   	retq   
  403005:	90                   	nop
  403006:	66 2e 0f 1f 84 00 00 	nopw   %cs:0x0(%rax,%rax,1)
  40300d:	00 00 00 

0000000000403010 <__libc_csu_fini>:
  403010:	f3 c3                	repz retq 

Disassembly of section .fini:

0000000000403014 <_fini>:
  403014:	48 83 ec 08          	sub    $0x8,%rsp
  403018:	48 83 c4 08          	add    $0x8,%rsp
  40301c:	c3                   	retq   
